

Microchip MPLAB XC8 Assembler V3.00 build 20241204225717 
                                                                                               Sat Jun 28 16:24:34 2025

Microchip MPLAB XC8 C Compiler v3.00 (Free license) build 20241204225717 Og1 
     1                           	processor	16F877A
     2                           	pagewidth 120
     3                           	opt	flic
     4                           	psect	idataBANK1,global,class=CODE,space=0,delta=2,noexec
     5                           	psect	strings,global,class=STRING,space=0,delta=2,noexec
     6                           	psect	cinit,global,class=CODE,space=0,merge=1,delta=2
     7                           	psect	bssCOMMON,global,class=COMMON,space=1,delta=1,noexec
     8                           	psect	bssBANK1,global,class=BANK1,space=1,delta=1,noexec
     9                           	psect	dataBANK1,global,class=BANK1,space=1,delta=1,noexec
    10                           	psect	bssBANK3,global,class=BANK3,space=1,delta=1,noexec
    11                           	psect	clrtext,global,class=CODE,space=0,delta=2
    12                           	psect	cstackBANK1,global,class=BANK1,space=1,delta=1,noexec
    13                           	psect	cstackCOMMON,global,class=COMMON,space=1,delta=1,noexec
    14                           	psect	cstackBANK0,global,class=BANK0,space=1,delta=1,noexec
    15                           	psect	maintext,global,class=CODE,space=0,split=1,delta=2
    16                           	psect	text1,local,class=CODE,space=0,merge=1,delta=2,group=3
    17                           	psect	text2,local,class=CODE,space=0,merge=1,delta=2,group=1
    18                           	psect	text3,local,class=CODE,space=0,merge=1,delta=2,group=1
    19                           	psect	text4,local,class=CODE,space=0,merge=1,delta=2,group=1
    20                           	psect	text5,local,class=CODE,space=0,merge=1,delta=2,group=2
    21                           	psect	text6,local,class=CODE,space=0,merge=1,delta=2,group=2
    22                           	psect	text7,local,class=CODE,space=0,merge=1,delta=2,group=1
    23                           	psect	text8,local,class=CODE,space=0,merge=1,delta=2,group=2
    24                           	psect	text9,local,class=CODE,space=0,merge=1,delta=2,group=1
    25                           	psect	text10,local,class=CODE,space=0,merge=1,delta=2,group=1
    26                           	psect	text11,local,class=CODE,space=0,merge=1,delta=2,group=3
    27                           	psect	text12,local,class=CODE,space=0,merge=1,delta=2,group=3
    28                           	psect	text13,local,class=CODE,space=0,merge=1,delta=2,group=2
    29                           	psect	text14,local,class=CODE,space=0,merge=1,delta=2,group=2
    30                           	psect	text15,local,class=CODE,space=0,merge=1,delta=2,group=1
    31                           	psect	text16,local,class=CODE,space=0,merge=1,delta=2,group=3
    32                           	psect	text17,local,class=CODE,space=0,merge=1,delta=2,group=3
    33                           	psect	text18,local,class=CODE,space=0,merge=1,delta=2
    34                           	psect	text19,local,class=CODE,space=0,merge=1,delta=2
    35                           	psect	text20,local,class=CODE,space=0,merge=1,delta=2
    36                           	psect	text21,local,class=CODE,space=0,merge=1,delta=2,group=2
    37                           	psect	text22,local,class=CODE,space=0,merge=1,delta=2,group=2
    38                           	psect	text23,local,class=CODE,space=0,merge=1,delta=2,group=2
    39                           	psect	text24,local,class=CODE,space=0,merge=1,delta=2,group=2
    40                           	psect	text25,local,class=CODE,space=0,merge=1,delta=2
    41                           	psect	text26,local,class=CODE,space=0,merge=1,delta=2,group=2
    42                           	psect	text27,local,class=CODE,space=0,merge=1,delta=2,group=2
    43                           	psect	text28,local,class=CODE,space=0,merge=1,delta=2,group=2
    44                           	psect	text29,local,class=CODE,space=0,merge=1,delta=2,group=2
    45                           	psect	text30,local,class=CODE,space=0,merge=1,delta=2,group=2
    46                           	psect	text31,local,class=CODE,space=0,merge=1,delta=2
    47                           	psect	text32,local,class=CODE,space=0,merge=1,delta=2
    48                           	psect	text33,local,class=CODE,space=0,merge=1,delta=2
    49                           	psect	text34,local,class=CODE,space=0,merge=1,delta=2
    50                           	psect	text35,local,class=CODE,space=0,merge=1,delta=2
    51                           	psect	text36,local,class=CODE,space=0,merge=1,delta=2
    52                           	psect	intentry,global,class=CODE,space=0,delta=2
    53                           	psect	config,global,abs,ovrld,class=CONFIG,space=4,delta=2,noexec
    54                           	dabs	1,0x7E,2
    55     0000                     
    56                           ; Generated 05/12/2024 GMT
    57                           ; 
    58                           ; Copyright © 2024, Microchip Technology Inc. and its subsidiaries ("Microchip")
    59                           ; All rights reserved.
    60                           ; 
    61                           ; This software is developed by Microchip Technology Inc. and its subsidiaries ("Microch
      +                          ip").
    62                           ; 
    63                           ; Redistribution and use in source and binary forms, with or without modification, are
    64                           ; permitted provided that the following conditions are met:
    65                           ; 
    66                           ;     1. Redistributions of source code must retain the above copyright notice, this lis
      +                          t of
    67                           ;        conditions and the following disclaimer.
    68                           ; 
    69                           ;     2. Redistributions in binary form must reproduce the above copyright notice, this 
      +                          list
    70                           ;        of conditions and the following disclaimer in the documentation and/or other
    71                           ;        materials provided with the distribution. Publication is not required when
    72                           ;        this file is used in an embedded application.
    73                           ; 
    74                           ;     3. Microchip's name may not be used to endorse or promote products derived from th
      +                          is
    75                           ;        software without specific prior written permission.
    76                           ; 
    77                           ; THIS SOFTWARE IS PROVIDED BY MICROCHIP "AS IS" AND ANY EXPRESS OR IMPLIED WARRANTIES,
    78                           ; INCLUDING, BUT NOT LIMITED TO, THE IMPLIED WARRANTIES OF MERCHANTABILITY AND FITNESS F
      +                          OR
    79                           ; PURPOSE ARE DISCLAIMED.  IN NO EVENT SHALL MICROCHIP BE LIABLE FOR ANY DIRECT, INDIREC
      +                          T,
    80                           ; INCIDENTAL, SPECIAL, EXEMPLARY, OR CONSEQUENTIAL DAMAGES (INCLUDING BUT NOT LIMITED TO
    81                           ; PROCUREMENT OF SUBSTITUTE GOODS OR SERVICES; LOSS OF USE, DATA OR PROFITS; OR BUSINESS
    82                           ; INTERRUPTION) HOWSOEVER CAUSED AND ON ANY THEORY OF LIABILITY, WHETHER IN CONTRACT, ST
      +                          RICT
    83                           ; LIABILITY, OR TORT (INCLUDING NEGLIGENCE OR OTHERWISE) ARISING IN ANY WAY OUT OF THE U
      +                          SE OF
    84                           ; THIS SOFTWARE, EVEN IF ADVISED OF THE POSSIBILITY OF SUCH DAMAGE.
    85                           ; 
    86                           ; 
    87                           ; Code-generator required, PIC16F877A Definitions
    88                           ; 
    89                           ; SFR Addresses
    90     0004                     fsr             equ	4
    91     0004                     fsr0            equ	4
    92     0000                     indf            equ	0
    93     0000                     indf0           equ	0
    94     0002                     pc              equ	2
    95     0002                     pcl             equ	2
    96     000A                     pclath          equ	10
    97     0003                     status          equ	3
    98     0000                     INDF            equ	0	;# 
    99     0001                     TMR0            equ	1	;# 
   100     0002                     PCL             equ	2	;# 
   101     0003                     STATUS          equ	3	;# 
   102     0004                     FSR             equ	4	;# 
   103     0005                     PORTA           equ	5	;# 
   104     0006                     PORTB           equ	6	;# 
   105     0007                     PORTC           equ	7	;# 
   106     0008                     PORTD           equ	8	;# 
   107     0009                     PORTE           equ	9	;# 
   108     000A                     PCLATH          equ	10	;# 
   109     000B                     INTCON          equ	11	;# 
   110     000C                     PIR1            equ	12	;# 
   111     000D                     PIR2            equ	13	;# 
   112     000E                     TMR1            equ	14	;# 
   113     000E                     TMR1L           equ	14	;# 
   114     000F                     TMR1H           equ	15	;# 
   115     0010                     T1CON           equ	16	;# 
   116     0011                     TMR2            equ	17	;# 
   117     0012                     T2CON           equ	18	;# 
   118     0013                     SSPBUF          equ	19	;# 
   119     0014                     SSPCON          equ	20	;# 
   120     0015                     CCPR1           equ	21	;# 
   121     0015                     CCPR1L          equ	21	;# 
   122     0016                     CCPR1H          equ	22	;# 
   123     0017                     CCP1CON         equ	23	;# 
   124     0018                     RCSTA           equ	24	;# 
   125     0019                     TXREG           equ	25	;# 
   126     001A                     RCREG           equ	26	;# 
   127     001B                     CCPR2           equ	27	;# 
   128     001B                     CCPR2L          equ	27	;# 
   129     001C                     CCPR2H          equ	28	;# 
   130     001D                     CCP2CON         equ	29	;# 
   131     001E                     ADRESH          equ	30	;# 
   132     001F                     ADCON0          equ	31	;# 
   133     0081                     OPTION_REG      equ	129	;# 
   134     0085                     TRISA           equ	133	;# 
   135     0086                     TRISB           equ	134	;# 
   136     0087                     TRISC           equ	135	;# 
   137     0088                     TRISD           equ	136	;# 
   138     0089                     TRISE           equ	137	;# 
   139     008C                     PIE1            equ	140	;# 
   140     008D                     PIE2            equ	141	;# 
   141     008E                     PCON            equ	142	;# 
   142     0091                     SSPCON2         equ	145	;# 
   143     0092                     PR2             equ	146	;# 
   144     0093                     SSPADD          equ	147	;# 
   145     0094                     SSPSTAT         equ	148	;# 
   146     0098                     TXSTA           equ	152	;# 
   147     0099                     SPBRG           equ	153	;# 
   148     009C                     CMCON           equ	156	;# 
   149     009D                     CVRCON          equ	157	;# 
   150     009E                     ADRESL          equ	158	;# 
   151     009F                     ADCON1          equ	159	;# 
   152     010C                     EEDATA          equ	268	;# 
   153     010D                     EEADR           equ	269	;# 
   154     010E                     EEDATH          equ	270	;# 
   155     010F                     EEADRH          equ	271	;# 
   156     018C                     EECON1          equ	396	;# 
   157     018D                     EECON2          equ	397	;# 
   158     0000                     INDF            equ	0	;# 
   159     0001                     TMR0            equ	1	;# 
   160     0002                     PCL             equ	2	;# 
   161     0003                     STATUS          equ	3	;# 
   162     0004                     FSR             equ	4	;# 
   163     0005                     PORTA           equ	5	;# 
   164     0006                     PORTB           equ	6	;# 
   165     0007                     PORTC           equ	7	;# 
   166     0008                     PORTD           equ	8	;# 
   167     0009                     PORTE           equ	9	;# 
   168     000A                     PCLATH          equ	10	;# 
   169     000B                     INTCON          equ	11	;# 
   170     000C                     PIR1            equ	12	;# 
   171     000D                     PIR2            equ	13	;# 
   172     000E                     TMR1            equ	14	;# 
   173     000E                     TMR1L           equ	14	;# 
   174     000F                     TMR1H           equ	15	;# 
   175     0010                     T1CON           equ	16	;# 
   176     0011                     TMR2            equ	17	;# 
   177     0012                     T2CON           equ	18	;# 
   178     0013                     SSPBUF          equ	19	;# 
   179     0014                     SSPCON          equ	20	;# 
   180     0015                     CCPR1           equ	21	;# 
   181     0015                     CCPR1L          equ	21	;# 
   182     0016                     CCPR1H          equ	22	;# 
   183     0017                     CCP1CON         equ	23	;# 
   184     0018                     RCSTA           equ	24	;# 
   185     0019                     TXREG           equ	25	;# 
   186     001A                     RCREG           equ	26	;# 
   187     001B                     CCPR2           equ	27	;# 
   188     001B                     CCPR2L          equ	27	;# 
   189     001C                     CCPR2H          equ	28	;# 
   190     001D                     CCP2CON         equ	29	;# 
   191     001E                     ADRESH          equ	30	;# 
   192     001F                     ADCON0          equ	31	;# 
   193     0081                     OPTION_REG      equ	129	;# 
   194     0085                     TRISA           equ	133	;# 
   195     0086                     TRISB           equ	134	;# 
   196     0087                     TRISC           equ	135	;# 
   197     0088                     TRISD           equ	136	;# 
   198     0089                     TRISE           equ	137	;# 
   199     008C                     PIE1            equ	140	;# 
   200     008D                     PIE2            equ	141	;# 
   201     008E                     PCON            equ	142	;# 
   202     0091                     SSPCON2         equ	145	;# 
   203     0092                     PR2             equ	146	;# 
   204     0093                     SSPADD          equ	147	;# 
   205     0094                     SSPSTAT         equ	148	;# 
   206     0098                     TXSTA           equ	152	;# 
   207     0099                     SPBRG           equ	153	;# 
   208     009C                     CMCON           equ	156	;# 
   209     009D                     CVRCON          equ	157	;# 
   210     009E                     ADRESL          equ	158	;# 
   211     009F                     ADCON1          equ	159	;# 
   212     010C                     EEDATA          equ	268	;# 
   213     010D                     EEADR           equ	269	;# 
   214     010E                     EEDATH          equ	270	;# 
   215     010F                     EEADRH          equ	271	;# 
   216     018C                     EECON1          equ	396	;# 
   217     018D                     EECON2          equ	397	;# 
   218     0000                     INDF            equ	0	;# 
   219     0001                     TMR0            equ	1	;# 
   220     0002                     PCL             equ	2	;# 
   221     0003                     STATUS          equ	3	;# 
   222     0004                     FSR             equ	4	;# 
   223     0005                     PORTA           equ	5	;# 
   224     0006                     PORTB           equ	6	;# 
   225     0007                     PORTC           equ	7	;# 
   226     0008                     PORTD           equ	8	;# 
   227     0009                     PORTE           equ	9	;# 
   228     000A                     PCLATH          equ	10	;# 
   229     000B                     INTCON          equ	11	;# 
   230     000C                     PIR1            equ	12	;# 
   231     000D                     PIR2            equ	13	;# 
   232     000E                     TMR1            equ	14	;# 
   233     000E                     TMR1L           equ	14	;# 
   234     000F                     TMR1H           equ	15	;# 
   235     0010                     T1CON           equ	16	;# 
   236     0011                     TMR2            equ	17	;# 
   237     0012                     T2CON           equ	18	;# 
   238     0013                     SSPBUF          equ	19	;# 
   239     0014                     SSPCON          equ	20	;# 
   240     0015                     CCPR1           equ	21	;# 
   241     0015                     CCPR1L          equ	21	;# 
   242     0016                     CCPR1H          equ	22	;# 
   243     0017                     CCP1CON         equ	23	;# 
   244     0018                     RCSTA           equ	24	;# 
   245     0019                     TXREG           equ	25	;# 
   246     001A                     RCREG           equ	26	;# 
   247     001B                     CCPR2           equ	27	;# 
   248     001B                     CCPR2L          equ	27	;# 
   249     001C                     CCPR2H          equ	28	;# 
   250     001D                     CCP2CON         equ	29	;# 
   251     001E                     ADRESH          equ	30	;# 
   252     001F                     ADCON0          equ	31	;# 
   253     0081                     OPTION_REG      equ	129	;# 
   254     0085                     TRISA           equ	133	;# 
   255     0086                     TRISB           equ	134	;# 
   256     0087                     TRISC           equ	135	;# 
   257     0088                     TRISD           equ	136	;# 
   258     0089                     TRISE           equ	137	;# 
   259     008C                     PIE1            equ	140	;# 
   260     008D                     PIE2            equ	141	;# 
   261     008E                     PCON            equ	142	;# 
   262     0091                     SSPCON2         equ	145	;# 
   263     0092                     PR2             equ	146	;# 
   264     0093                     SSPADD          equ	147	;# 
   265     0094                     SSPSTAT         equ	148	;# 
   266     0098                     TXSTA           equ	152	;# 
   267     0099                     SPBRG           equ	153	;# 
   268     009C                     CMCON           equ	156	;# 
   269     009D                     CVRCON          equ	157	;# 
   270     009E                     ADRESL          equ	158	;# 
   271     009F                     ADCON1          equ	159	;# 
   272     010C                     EEDATA          equ	268	;# 
   273     010D                     EEADR           equ	269	;# 
   274     010E                     EEDATH          equ	270	;# 
   275     010F                     EEADRH          equ	271	;# 
   276     018C                     EECON1          equ	396	;# 
   277     018D                     EECON2          equ	397	;# 
   278     0000                     INDF            equ	0	;# 
   279     0001                     TMR0            equ	1	;# 
   280     0002                     PCL             equ	2	;# 
   281     0003                     STATUS          equ	3	;# 
   282     0004                     FSR             equ	4	;# 
   283     0005                     PORTA           equ	5	;# 
   284     0006                     PORTB           equ	6	;# 
   285     0007                     PORTC           equ	7	;# 
   286     0008                     PORTD           equ	8	;# 
   287     0009                     PORTE           equ	9	;# 
   288     000A                     PCLATH          equ	10	;# 
   289     000B                     INTCON          equ	11	;# 
   290     000C                     PIR1            equ	12	;# 
   291     000D                     PIR2            equ	13	;# 
   292     000E                     TMR1            equ	14	;# 
   293     000E                     TMR1L           equ	14	;# 
   294     000F                     TMR1H           equ	15	;# 
   295     0010                     T1CON           equ	16	;# 
   296     0011                     TMR2            equ	17	;# 
   297     0012                     T2CON           equ	18	;# 
   298     0013                     SSPBUF          equ	19	;# 
   299     0014                     SSPCON          equ	20	;# 
   300     0015                     CCPR1           equ	21	;# 
   301     0015                     CCPR1L          equ	21	;# 
   302     0016                     CCPR1H          equ	22	;# 
   303     0017                     CCP1CON         equ	23	;# 
   304     0018                     RCSTA           equ	24	;# 
   305     0019                     TXREG           equ	25	;# 
   306     001A                     RCREG           equ	26	;# 
   307     001B                     CCPR2           equ	27	;# 
   308     001B                     CCPR2L          equ	27	;# 
   309     001C                     CCPR2H          equ	28	;# 
   310     001D                     CCP2CON         equ	29	;# 
   311     001E                     ADRESH          equ	30	;# 
   312     001F                     ADCON0          equ	31	;# 
   313     0081                     OPTION_REG      equ	129	;# 
   314     0085                     TRISA           equ	133	;# 
   315     0086                     TRISB           equ	134	;# 
   316     0087                     TRISC           equ	135	;# 
   317     0088                     TRISD           equ	136	;# 
   318     0089                     TRISE           equ	137	;# 
   319     008C                     PIE1            equ	140	;# 
   320     008D                     PIE2            equ	141	;# 
   321     008E                     PCON            equ	142	;# 
   322     0091                     SSPCON2         equ	145	;# 
   323     0092                     PR2             equ	146	;# 
   324     0093                     SSPADD          equ	147	;# 
   325     0094                     SSPSTAT         equ	148	;# 
   326     0098                     TXSTA           equ	152	;# 
   327     0099                     SPBRG           equ	153	;# 
   328     009C                     CMCON           equ	156	;# 
   329     009D                     CVRCON          equ	157	;# 
   330     009E                     ADRESL          equ	158	;# 
   331     009F                     ADCON1          equ	159	;# 
   332     010C                     EEDATA          equ	268	;# 
   333     010D                     EEADR           equ	269	;# 
   334     010E                     EEDATH          equ	270	;# 
   335     010F                     EEADRH          equ	271	;# 
   336     018C                     EECON1          equ	396	;# 
   337     018D                     EECON2          equ	397	;# 
   338     0000                     INDF            equ	0	;# 
   339     0001                     TMR0            equ	1	;# 
   340     0002                     PCL             equ	2	;# 
   341     0003                     STATUS          equ	3	;# 
   342     0004                     FSR             equ	4	;# 
   343     0005                     PORTA           equ	5	;# 
   344     0006                     PORTB           equ	6	;# 
   345     0007                     PORTC           equ	7	;# 
   346     0008                     PORTD           equ	8	;# 
   347     0009                     PORTE           equ	9	;# 
   348     000A                     PCLATH          equ	10	;# 
   349     000B                     INTCON          equ	11	;# 
   350     000C                     PIR1            equ	12	;# 
   351     000D                     PIR2            equ	13	;# 
   352     000E                     TMR1            equ	14	;# 
   353     000E                     TMR1L           equ	14	;# 
   354     000F                     TMR1H           equ	15	;# 
   355     0010                     T1CON           equ	16	;# 
   356     0011                     TMR2            equ	17	;# 
   357     0012                     T2CON           equ	18	;# 
   358     0013                     SSPBUF          equ	19	;# 
   359     0014                     SSPCON          equ	20	;# 
   360     0015                     CCPR1           equ	21	;# 
   361     0015                     CCPR1L          equ	21	;# 
   362     0016                     CCPR1H          equ	22	;# 
   363     0017                     CCP1CON         equ	23	;# 
   364     0018                     RCSTA           equ	24	;# 
   365     0019                     TXREG           equ	25	;# 
   366     001A                     RCREG           equ	26	;# 
   367     001B                     CCPR2           equ	27	;# 
   368     001B                     CCPR2L          equ	27	;# 
   369     001C                     CCPR2H          equ	28	;# 
   370     001D                     CCP2CON         equ	29	;# 
   371     001E                     ADRESH          equ	30	;# 
   372     001F                     ADCON0          equ	31	;# 
   373     0081                     OPTION_REG      equ	129	;# 
   374     0085                     TRISA           equ	133	;# 
   375     0086                     TRISB           equ	134	;# 
   376     0087                     TRISC           equ	135	;# 
   377     0088                     TRISD           equ	136	;# 
   378     0089                     TRISE           equ	137	;# 
   379     008C                     PIE1            equ	140	;# 
   380     008D                     PIE2            equ	141	;# 
   381     008E                     PCON            equ	142	;# 
   382     0091                     SSPCON2         equ	145	;# 
   383     0092                     PR2             equ	146	;# 
   384     0093                     SSPADD          equ	147	;# 
   385     0094                     SSPSTAT         equ	148	;# 
   386     0098                     TXSTA           equ	152	;# 
   387     0099                     SPBRG           equ	153	;# 
   388     009C                     CMCON           equ	156	;# 
   389     009D                     CVRCON          equ	157	;# 
   390     009E                     ADRESL          equ	158	;# 
   391     009F                     ADCON1          equ	159	;# 
   392     010C                     EEDATA          equ	268	;# 
   393     010D                     EEADR           equ	269	;# 
   394     010E                     EEDATH          equ	270	;# 
   395     010F                     EEADRH          equ	271	;# 
   396     018C                     EECON1          equ	396	;# 
   397     018D                     EECON2          equ	397	;# 
   398                           
   399                           	psect	idataBANK1
   400     07FB                     __pidataBANK1:
   401                           
   402                           ;initializer for _firstCapture
   403     07FB  3401               	retlw	1
   404     000E                     _TMR1L          set	14
   405     000F                     _TMR1H          set	15
   406     0010                     _T1CONbits      set	16
   407     0015                     _CCPR1L         set	21
   408     0016                     _CCPR1H         set	22
   409     000C                     _PIR1bits       set	12
   410     0017                     _CCP1CON        set	23
   411     000B                     _INTCONbits     set	11
   412     001A                     _RCREG          set	26
   413     0019                     _TXREG          set	25
   414     0006                     _PORTB          set	6
   415     0006                     _PORTBbits      set	6
   416     001E                     _ADRESH         set	30
   417     001F                     _ADCON0bits     set	31
   418     001F                     _ADCON0         set	31
   419     00C4                     _CREN           set	196
   420     00C7                     _SPEN           set	199
   421     0065                     _RCIF           set	101
   422     0064                     _TXIF           set	100
   423     008C                     _PIE1bits       set	140
   424     0081                     _OPTION_REGbits set	129
   425     0099                     _SPBRG          set	153
   426     0086                     _TRISB          set	134
   427     009E                     _ADRESL         set	158
   428     009F                     _ADCON1         set	159
   429     0085                     _TRISA          set	133
   430     043A                     _TRISC2         set	1082
   431     0430                     _TRISB0         set	1072
   432     04C2                     _BRGH           set	1218
   433     04C5                     _TXEN           set	1221
   434     04C4                     _SYNC           set	1220
   435     043F                     _TRISC7         set	1087
   436     043E                     _TRISC6         set	1086
   437                           
   438                           	psect	strings
   439     1000                     __pstrings:
   440     1000                     stringtab:
   441     1000                     __stringtab:
   442                           
   443                           ;	String table - string pointers are 1 byte each
   444     1000  1BFF               	btfsc	btemp+1,7
   445     1001  280A               	ljmp	stringcode
   446     1002  1383               	bcf	3,7
   447     1003  187F               	btfsc	btemp+1,0
   448     1004  1783               	bsf	3,7
   449     1005  0800               	movf	0,w
   450     1006  0A84               	incf	4,f
   451     1007  1903               	skipnz
   452     1008  0AFF               	incf	btemp+1,f
   453     1009  0008               	return
   454     100A                     stringcode:
   455     100A                     stringdir:
   456     100A  3010               	movlw	high stringdir
   457     100B  008A               	movwf	10
   458     100C  0804               	movf	4,w
   459     100D  0A84               	incf	4,f
   460     100E  0782               	addwf	2,f
   461     100F                     __stringbase:
   462     100F  3400               	retlw	0
   463     1010                     __end_of__stringtab:
   464     1010                     STR_7:
   465     1010  342D               	retlw	45	;'-'
   466     1011  342D               	retlw	45	;'-'
   467     1012  342D               	retlw	45	;'-'
   468     1013  342D               	retlw	45	;'-'
   469     1014  342D               	retlw	45	;'-'
   470     1015  342D               	retlw	45	;'-'
   471     1016  342D               	retlw	45	;'-'
   472     1017  342D               	retlw	45	;'-'
   473     1018  342D               	retlw	45	;'-'
   474     1019  342D               	retlw	45	;'-'
   475     101A  342D               	retlw	45	;'-'
   476     101B  342D               	retlw	45	;'-'
   477     101C  342D               	retlw	45	;'-'
   478     101D  342D               	retlw	45	;'-'
   479     101E  342D               	retlw	45	;'-'
   480     101F  342D               	retlw	45	;'-'
   481     1020  3400               	retlw	0
   482     1021                     STR_19:
   483     1021  3470               	retlw	112	;'p'
   484     1022  3465               	retlw	101	;'e'
   485     1023  3472               	retlw	114	;'r'
   486     1024  3469               	retlw	105	;'i'
   487     1025  346F               	retlw	111	;'o'
   488     1026  3464               	retlw	100	;'d'
   489     1027  3465               	retlw	101	;'e'
   490     1028  3420               	retlw	32	;' '
   491     1029  343D               	retlw	61	;'='
   492     102A  3420               	retlw	32	;' '
   493     102B  3400               	retlw	0
   494     102C                     STR_22:
   495     102C  3456               	retlw	86	;'V'
   496     102D  3469               	retlw	105	;'i'
   497     102E  3474               	retlw	116	;'t'
   498     102F  3465               	retlw	101	;'e'
   499     1030  3473               	retlw	115	;'s'
   500     1031  3473               	retlw	115	;'s'
   501     1032  3465               	retlw	101	;'e'
   502     1033  3420               	retlw	32	;' '
   503     1034  343D               	retlw	61	;'='
   504     1035  3420               	retlw	32	;' '
   505     1036  3400               	retlw	0
   506     1037                     STR_9:
   507     1037  3441               	retlw	65	;'A'
   508     1038  3444               	retlw	68	;'D'
   509     1039  3443               	retlw	67	;'C'
   510     103A  3432               	retlw	50	;'2'
   511     103B  3428               	retlw	40	;'('
   512     103C  3441               	retlw	65	;'A'
   513     103D  344E               	retlw	78	;'N'
   514     103E  3430               	retlw	48	;'0'
   515     103F  3429               	retlw	41	;')'
   516     1040  343D               	retlw	61	;'='
   517     1041  3400               	retlw	0
   518     1042                     STR_2:
   519     1042  3441               	retlw	65	;'A'
   520     1043  3444               	retlw	68	;'D'
   521     1044  3443               	retlw	67	;'C'
   522     1045  3431               	retlw	49	;'1'
   523     1046  3428               	retlw	40	;'('
   524     1047  3441               	retlw	65	;'A'
   525     1048  344E               	retlw	78	;'N'
   526     1049  3434               	retlw	52	;'4'
   527     104A  3429               	retlw	41	;')'
   528     104B  343D               	retlw	61	;'='
   529     104C  3400               	retlw	0
   530     104D                     STR_3:
   531     104D  3425               	retlw	37	;'%'
   532     104E  3463               	retlw	99	;'c'
   533     104F  3425               	retlw	37	;'%'
   534     1050  3464               	retlw	100	;'d'
   535     1051  342E               	retlw	46	;'.'
   536     1052  3425               	retlw	37	;'%'
   537     1053  3430               	retlw	48	;'0'
   538     1054  3432               	retlw	50	;'2'
   539     1055  3464               	retlw	100	;'d'
   540     1056  3400               	retlw	0
   541     1057                     STR_16:
   542     1057  3466               	retlw	102	;'f'
   543     1058  3472               	retlw	114	;'r'
   544     1059  3465               	retlw	101	;'e'
   545     105A  3471               	retlw	113	;'q'
   546     105B  3420               	retlw	32	;' '
   547     105C  343D               	retlw	61	;'='
   548     105D  3420               	retlw	32	;' '
   549     105E  3400               	retlw	0
   550     105F                     STR_6:
   551     105F  3474               	retlw	116	;'t'
   552     1060  3465               	retlw	101	;'e'
   553     1061  346D               	retlw	109	;'m'
   554     1062  3470               	retlw	112	;'p'
   555     1063  343D               	retlw	61	;'='
   556     1064  3400               	retlw	0
   557     1065                     STR_23:
   558     1065  3420               	retlw	32	;' '
   559     1066  344B               	retlw	75	;'K'
   560     1067  346D               	retlw	109	;'m'
   561     1068  342F               	retlw	47	;'/'
   562     1069  3468               	retlw	104	;'h'
   563     106A  3400               	retlw	0
   564     106B                     STR_13:
   565     106B  3470               	retlw	112	;'p'
   566     106C  346F               	retlw	111	;'o'
   567     106D  3474               	retlw	116	;'t'
   568     106E  343D               	retlw	61	;'='
   569     106F  3400               	retlw	0
   570     1070                     STR_5:
   571     1070  3425               	retlw	37	;'%'
   572     1071  3463               	retlw	99	;'c'
   573     1072  3425               	retlw	37	;'%'
   574     1073  3464               	retlw	100	;'d'
   575     1074  3400               	retlw	0
   576     1075                     STR_20:
   577     1075  3420               	retlw	32	;' '
   578     1076  3475               	retlw	117	;'u'
   579     1077  3473               	retlw	115	;'s'
   580     1078  3400               	retlw	0
   581     1079                     STR_1:
   582     1079  3425               	retlw	37	;'%'
   583     107A  3434               	retlw	52	;'4'
   584     107B  3475               	retlw	117	;'u'
   585     107C  3400               	retlw	0
   586     107D                     STR_15:
   587     107D  3425               	retlw	37	;'%'
   588     107E  346C               	retlw	108	;'l'
   589     107F  3475               	retlw	117	;'u'
   590     1080  3400               	retlw	0
   591     1081                     STR_17:
   592     1081  3420               	retlw	32	;' '
   593     1082  3448               	retlw	72	;'H'
   594     1083  347A               	retlw	122	;'z'
   595     1084  3400               	retlw	0
   596     1085                     STR_4:
   597     1085  3456               	retlw	86	;'V'
   598     1086  343D               	retlw	61	;'='
   599     1087  3400               	retlw	0
   600     1088                     STR_18:
   601     1088  3425               	retlw	37	;'%'
   602     1089  3475               	retlw	117	;'u'
   603     108A  3400               	retlw	0
   604     1079                     STR_8           equ	STR_1
   605     104F                     STR_10          equ	STR_3+2
   606     1072                     STR_12          equ	STR_5+2
   607     1072                     STR_21          equ	STR_5+2
   608     1085                     STR_11          equ	STR_4
   609     1010                     STR_14          equ	STR_7
   610     1010                     STR_24          equ	STR_7
   611                           
   612                           	psect	cinit
   613     000F                     start_initialization:	
   614                           ; #config settings
   615                           
   616     000F                     __initialization:
   617                           
   618                           ; Initialize objects allocated to BANK1
   619     000F  1683               	bsf	3,5	;RP0=1, select bank1
   620     0010  1303               	bcf	3,6	;RP1=0, select bank1
   621     0011  120A  118A  27FB  120A  118A  	fcall	__pidataBANK1	;fetch initializer
   622     0016  00E6               	movwf	__pdataBANK1& (0+127)
   623                           
   624                           ; Clear objects allocated to BANK3
   625     0017  1783               	bsf	3,7	;select IRP bank2
   626     0018  3090               	movlw	low __pbssBANK3
   627     0019  0084               	movwf	4
   628     001A  30B0               	movlw	low (__pbssBANK3+32)
   629     001B  160A  158A  2601  120A  118A  	fcall	clear_ram0
   630                           
   631                           ; Clear objects allocated to BANK1
   632     0020  01E0               	clrf	__pbssBANK1& (0+127)
   633     0021  01E1               	clrf	(__pbssBANK1+1)& (0+127)
   634     0022  01E2               	clrf	(__pbssBANK1+2)& (0+127)
   635     0023  01E3               	clrf	(__pbssBANK1+3)& (0+127)
   636     0024  01E4               	clrf	(__pbssBANK1+4)& (0+127)
   637     0025  01E5               	clrf	(__pbssBANK1+5)& (0+127)
   638                           
   639                           ; Clear objects allocated to COMMON
   640     0026  01F8               	clrf	__pbssCOMMON& (0+127)
   641     0027  01F9               	clrf	(__pbssCOMMON+1)& (0+127)
   642     0028  01FA               	clrf	(__pbssCOMMON+2)& (0+127)
   643     0029  01FB               	clrf	(__pbssCOMMON+3)& (0+127)
   644     002A  01FC               	clrf	(__pbssCOMMON+4)& (0+127)
   645     002B  01FD               	clrf	(__pbssCOMMON+5)& (0+127)
   646     002C                     end_of_initialization:	
   647                           ;End of C runtime variable initialization code
   648                           
   649     002C                     __end_of__initialization:
   650     002C  0183               	clrf	3
   651     002D  120A  118A  2830   	ljmp	_main	;jump to C main() function
   652                           
   653                           	psect	bssCOMMON
   654     0078                     __pbssCOMMON:
   655     0078                     _width:
   656     0078                     	ds	2
   657     007A                     _t2:
   658     007A                     	ds	2
   659     007C                     _flags:
   660     007C                     	ds	1
   661     007D                     _newMeasure:
   662     007D                     	ds	1
   663                           
   664                           	psect	bssBANK1
   665     00E0                     __pbssBANK1:
   666     00E0                     _prec:
   667     00E0                     	ds	2
   668     00E2                     _t1:
   669     00E2                     	ds	2
   670     00E4                     _period:
   671     00E4                     	ds	2
   672                           
   673                           	psect	dataBANK1
   674     00E6                     __pdataBANK1:
   675     00E6                     _firstCapture:
   676     00E6                     	ds	1
   677                           
   678                           	psect	bssBANK3
   679     0190                     __pbssBANK3:
   680     0190                     _dbuf:
   681     0190                     	ds	32
   682                           
   683                           	psect	clrtext
   684     1E01                     clear_ram0:	
   685                           ;	Called with FSR containing the base address, and
   686                           ;	W with the last address+1
   687                           
   688     1E01  0064               	clrwdt	;clear the watchdog before getting into this loop
   689     1E02                     clrloop0:
   690     1E02  0180               	clrf	0	;clear RAM location pointed to by FSR
   691     1E03  0A84               	incf	4,f	;increment pointer
   692     1E04  0604               	xorwf	4,w	;XOR with final address
   693     1E05  1903               	btfsc	3,2	;have we reached the end yet?
   694     1E06  3400               	retlw	0	;all done for this memory range, return
   695     1E07  0604               	xorwf	4,w	;XOR again to restore value
   696     1E08  2E02               	goto	clrloop0	;do the next byte
   697                           
   698                           	psect	cstackBANK1
   699     00A0                     __pcstackBANK1:
   700     00A0                     sprintf@ap:
   701     00A0                     ??___fladd:	
   702                           ; 1 bytes @ 0x0
   703                           
   704                           
   705                           ; 1 bytes @ 0x0
   706     00A0                     	ds	1
   707     00A1                     sprintf@f:
   708                           
   709                           ; 11 bytes @ 0x1
   710     00A1                     	ds	7
   711     00A8                     ?_USART_init:
   712     00A8                     USART_init@Fosc:	
   713                           ; 1 bytes @ 0x8
   714                           
   715                           
   716                           ; 4 bytes @ 0x8
   717     00A8                     	ds	4
   718     00AC                     USART_init@BaudRate:
   719                           
   720                           ; 4 bytes @ 0xC
   721     00AC                     	ds	4
   722     00B0                     USART_init@x:
   723                           
   724                           ; 4 bytes @ 0x10
   725     00B0                     	ds	4
   726     00B4                     main@freqRot:
   727                           
   728                           ; 4 bytes @ 0x14
   729     00B4                     	ds	4
   730     00B8                     main@vitess:
   731                           
   732                           ; 4 bytes @ 0x18
   733     00B8                     	ds	4
   734     00BC                     main@pot_percent:
   735                           
   736                           ; 2 bytes @ 0x1C
   737     00BC                     	ds	2
   738     00BE                     _main$1210:
   739                           
   740                           ; 2 bytes @ 0x1E
   741     00BE                     	ds	2
   742     00C0                     _main$373:
   743                           
   744                           ; 2 bytes @ 0x20
   745     00C0                     	ds	2
   746     00C2                     _main$378:
   747                           
   748                           ; 2 bytes @ 0x22
   749     00C2                     	ds	2
   750     00C4                     main@abs_t:
   751                           
   752                           ; 2 bytes @ 0x24
   753     00C4                     	ds	2
   754     00C6                     main@sign_v:
   755                           
   756                           ; 1 bytes @ 0x26
   757     00C6                     	ds	1
   758     00C7                     main@sign_t:
   759                           
   760                           ; 1 bytes @ 0x27
   761     00C7                     	ds	1
   762     00C8                     main@str_buffer:
   763                           
   764                           ; 10 bytes @ 0x28
   765     00C8                     	ds	10
   766     00D2                     main@freq:
   767                           
   768                           ; 4 bytes @ 0x32
   769     00D2                     	ds	4
   770     00D6                     main@ADC_value2:
   771                           
   772                           ; 2 bytes @ 0x36
   773     00D6                     	ds	2
   774     00D8                     main@abs_v:
   775                           
   776                           ; 2 bytes @ 0x38
   777     00D8                     	ds	2
   778     00DA                     main@ADC_value1:
   779                           
   780                           ; 2 bytes @ 0x3A
   781     00DA                     	ds	2
   782     00DC                     main@voltage_mV2:
   783                           
   784                           ; 2 bytes @ 0x3C
   785     00DC                     	ds	2
   786     00DE                     main@voltage_mV1:
   787                           
   788                           ; 2 bytes @ 0x3E
   789     00DE                     	ds	2
   790                           
   791                           	psect	cstackCOMMON
   792     0070                     __pcstackCOMMON:
   793     0070                     ?_Timer1_Init:
   794     0070                     ?_USART_Write_Char:	
   795                           ; 1 bytes @ 0x0
   796                           
   797     0070                     ?_putch:	
   798                           ; 1 bytes @ 0x0
   799                           
   800     0070                     ?_enable:	
   801                           ; 1 bytes @ 0x0
   802                           
   803     0070                     ?_lcd_cmd:	
   804                           ; 1 bytes @ 0x0
   805                           
   806     0070                     ?_lcd_intial_4bits:	
   807                           ; 1 bytes @ 0x0
   808                           
   809     0070                     ?_main:	
   810                           ; 1 bytes @ 0x0
   811                           
   812     0070                     ?_ISR:	
   813                           ; 1 bytes @ 0x0
   814                           
   815     0070                     putch@c:	
   816                           ; 1 bytes @ 0x0
   817                           
   818     0070                     ??_ISR:	
   819                           ; 1 bytes @ 0x0
   820                           
   821                           
   822                           ; 1 bytes @ 0x0
   823     0070                     	ds	6
   824     0076                     ISR@timer_value:
   825                           
   826                           ; 2 bytes @ 0x6
   827     0076                     	ds	2
   828                           
   829                           	psect	cstackBANK0
   830     0020                     __pcstackBANK0:
   831     0020                     ?__Umul8_16:
   832     0020                     ?_fputc:	
   833                           ; 2 bytes @ 0x0
   834                           
   835     0020                     ?_ADC_Read1:	
   836                           ; 2 bytes @ 0x0
   837                           
   838     0020                     ?_ADC_Read2:	
   839                           ; 2 bytes @ 0x0
   840                           
   841     0020                     ?___awmod:	
   842                           ; 2 bytes @ 0x0
   843                           
   844     0020                     ?___lmul:	
   845                           ; 2 bytes @ 0x0
   846                           
   847     0020                     ?___aldiv:	
   848                           ; 4 bytes @ 0x0
   849                           
   850     0020                     ?___almod:	
   851                           ; 4 bytes @ 0x0
   852                           
   853     0020                     ?___llmod:	
   854                           ; 4 bytes @ 0x0
   855                           
   856     0020                     ?___xxtofl:	
   857                           ; 4 bytes @ 0x0
   858                           
   859     0020                     USART_Write_Char@c:	
   860                           ; 4 bytes @ 0x0
   861                           
   862     0020                     __Umul8_16@multiplicand:	
   863                           ; 1 bytes @ 0x0
   864                           
   865     0020                     ___awmod@divisor:	
   866                           ; 1 bytes @ 0x0
   867                           
   868     0020                     fputc@c:	
   869                           ; 2 bytes @ 0x0
   870                           
   871     0020                     ___lmul@multiplier:	
   872                           ; 2 bytes @ 0x0
   873                           
   874     0020                     ___aldiv@divisor:	
   875                           ; 4 bytes @ 0x0
   876                           
   877     0020                     ___almod@divisor:	
   878                           ; 4 bytes @ 0x0
   879                           
   880     0020                     ___llmod@divisor:	
   881                           ; 4 bytes @ 0x0
   882                           
   883     0020                     ___xxtofl@val:	
   884                           ; 4 bytes @ 0x0
   885                           
   886     0020                     ??_Timer1_Init:	
   887                           ; 4 bytes @ 0x0
   888                           
   889     0020                     ??_USART_Write_Char:	
   890                           ; 1 bytes @ 0x0
   891                           
   892     0020                     ??_putch:	
   893                           ; 1 bytes @ 0x0
   894                           
   895     0020                     ??_enable:	
   896                           ; 1 bytes @ 0x0
   897                           
   898                           
   899                           ; 1 bytes @ 0x0
   900     0020                     	ds	1
   901     0021                     ?_USART_Write_Text:
   902     0021                     USART_Write_Text@str:	
   903                           ; 1 bytes @ 0x1
   904                           
   905     0021                     ??_lcd_cmd:	
   906                           ; 2 bytes @ 0x1
   907                           
   908                           
   909                           ; 1 bytes @ 0x1
   910     0021                     	ds	1
   911     0022                     ___awmod@dividend:
   912     0022                     fputc@fp:	
   913                           ; 2 bytes @ 0x2
   914                           
   915     0022                     ??__Umul8_16:	
   916                           ; 2 bytes @ 0x2
   917                           
   918     0022                     ??_ADC_Read1:	
   919                           ; 1 bytes @ 0x2
   920                           
   921     0022                     ??_ADC_Read2:	
   922                           ; 1 bytes @ 0x2
   923                           
   924                           
   925                           ; 1 bytes @ 0x2
   926     0022                     	ds	1
   927     0023                     lcd_cmd@cmd:
   928     0023                     ADC_Read1@adc_value:	
   929                           ; 1 bytes @ 0x3
   930                           
   931     0023                     ??_USART_Write_Text:	
   932                           ; 2 bytes @ 0x3
   933                           
   934                           
   935                           ; 1 bytes @ 0x3
   936     0023                     	ds	1
   937     0024                     ___awmod@counter:
   938     0024                     __Umul8_16@product:	
   939                           ; 1 bytes @ 0x4
   940                           
   941     0024                     ___lmul@multiplicand:	
   942                           ; 2 bytes @ 0x4
   943                           
   944     0024                     ___aldiv@dividend:	
   945                           ; 4 bytes @ 0x4
   946                           
   947     0024                     ___almod@dividend:	
   948                           ; 4 bytes @ 0x4
   949                           
   950     0024                     ___llmod@dividend:	
   951                           ; 4 bytes @ 0x4
   952                           
   953     0024                     ??_fputc:	
   954                           ; 4 bytes @ 0x4
   955                           
   956     0024                     ??_lcd_intial_4bits:	
   957                           ; 1 bytes @ 0x4
   958                           
   959     0024                     ??___awmod:	
   960                           ; 1 bytes @ 0x4
   961                           
   962     0024                     ??___xxtofl:	
   963                           ; 1 bytes @ 0x4
   964                           
   965                           
   966                           ; 1 bytes @ 0x4
   967     0024                     	ds	1
   968     0025                     ___awmod@sign:
   969                           
   970                           ; 1 bytes @ 0x5
   971     0025                     	ds	1
   972     0026                     ?___awdiv:
   973     0026                     ___awdiv@divisor:	
   974                           ; 2 bytes @ 0x6
   975                           
   976     0026                     __Umul8_16@word_mpld:	
   977                           ; 2 bytes @ 0x6
   978                           
   979                           
   980                           ; 2 bytes @ 0x6
   981     0026                     	ds	2
   982     0028                     __Umul8_16@multiplier:
   983     0028                     ___xxtofl@sign:	
   984                           ; 1 bytes @ 0x8
   985                           
   986     0028                     ___awdiv@dividend:	
   987                           ; 1 bytes @ 0x8
   988                           
   989     0028                     ??___lmul:	
   990                           ; 2 bytes @ 0x8
   991                           
   992     0028                     ??___aldiv:	
   993                           ; 1 bytes @ 0x8
   994                           
   995     0028                     ??___almod:	
   996                           ; 1 bytes @ 0x8
   997                           
   998     0028                     ??___llmod:	
   999                           ; 1 bytes @ 0x8
  1000                           
  1001                           
  1002                           ; 1 bytes @ 0x8
  1003     0028                     	ds	1
  1004     0029                     ___aldiv@counter:
  1005     0029                     ___almod@counter:	
  1006                           ; 1 bytes @ 0x9
  1007                           
  1008     0029                     ___llmod@counter:	
  1009                           ; 1 bytes @ 0x9
  1010                           
  1011     0029                     ___xxtofl@exp:	
  1012                           ; 1 bytes @ 0x9
  1013                           
  1014     0029                     ___lmul@product:	
  1015                           ; 1 bytes @ 0x9
  1016                           
  1017                           
  1018                           ; 4 bytes @ 0x9
  1019     0029                     	ds	1
  1020     002A                     ___aldiv@sign:
  1021     002A                     ___almod@sign:	
  1022                           ; 1 bytes @ 0xA
  1023                           
  1024     002A                     ___awdiv@counter:	
  1025                           ; 1 bytes @ 0xA
  1026                           
  1027     002A                     ___xxtofl@arg:	
  1028                           ; 1 bytes @ 0xA
  1029                           
  1030     002A                     ??___awdiv:	
  1031                           ; 4 bytes @ 0xA
  1032                           
  1033                           
  1034                           ; 1 bytes @ 0xA
  1035     002A                     	ds	1
  1036     002B                     ?_abs:
  1037     002B                     ___awdiv@sign:	
  1038                           ; 2 bytes @ 0xB
  1039                           
  1040     002B                     abs@a:	
  1041                           ; 1 bytes @ 0xB
  1042                           
  1043     002B                     ___aldiv@quotient:	
  1044                           ; 2 bytes @ 0xB
  1045                           
  1046                           
  1047                           ; 4 bytes @ 0xB
  1048     002B                     	ds	1
  1049     002C                     ___awdiv@quotient:
  1050                           
  1051                           ; 2 bytes @ 0xC
  1052     002C                     	ds	1
  1053     002D                     ?_ctoa:
  1054     002D                     ?_fputs:	
  1055                           ; 1 bytes @ 0xD
  1056                           
  1057     002D                     ?___lldiv:	
  1058                           ; 2 bytes @ 0xD
  1059                           
  1060     002D                     fputs@s:	
  1061                           ; 4 bytes @ 0xD
  1062                           
  1063     002D                     ctoa@fp:	
  1064                           ; 1 bytes @ 0xD
  1065                           
  1066     002D                     ___lldiv@divisor:	
  1067                           ; 2 bytes @ 0xD
  1068                           
  1069     002D                     ??_abs:	
  1070                           ; 4 bytes @ 0xD
  1071                           
  1072                           
  1073                           ; 1 bytes @ 0xD
  1074     002D                     	ds	1
  1075     002E                     ?___wmul:
  1076     002E                     ?___flmul:	
  1077                           ; 2 bytes @ 0xE
  1078                           
  1079     002E                     ___wmul@multiplier:	
  1080                           ; 4 bytes @ 0xE
  1081                           
  1082     002E                     fputs@fp:	
  1083                           ; 2 bytes @ 0xE
  1084                           
  1085     002E                     ___flmul@b:	
  1086                           ; 2 bytes @ 0xE
  1087                           
  1088                           
  1089                           ; 4 bytes @ 0xE
  1090     002E                     	ds	1
  1091     002F                     ctoa@c:
  1092                           
  1093                           ; 1 bytes @ 0xF
  1094     002F                     	ds	1
  1095     0030                     ___wmul@multiplicand:
  1096     0030                     ??_fputs:	
  1097                           ; 2 bytes @ 0x10
  1098                           
  1099     0030                     ??_ctoa:	
  1100                           ; 1 bytes @ 0x10
  1101                           
  1102                           
  1103                           ; 1 bytes @ 0x10
  1104     0030                     	ds	1
  1105     0031                     ___lldiv@dividend:
  1106                           
  1107                           ; 4 bytes @ 0x11
  1108     0031                     	ds	1
  1109     0032                     fputs@c:
  1110     0032                     ___wmul@product:	
  1111                           ; 1 bytes @ 0x12
  1112                           
  1113     0032                     ctoa@l:	
  1114                           ; 2 bytes @ 0x12
  1115                           
  1116     0032                     ___flmul@a:	
  1117                           ; 2 bytes @ 0x12
  1118                           
  1119     0032                     ??___wmul:	
  1120                           ; 4 bytes @ 0x12
  1121                           
  1122                           
  1123                           ; 1 bytes @ 0x12
  1124     0032                     	ds	1
  1125     0033                     fputs@i:
  1126                           
  1127                           ; 2 bytes @ 0x13
  1128     0033                     	ds	1
  1129     0034                     ?_read_prec_or_width:
  1130     0034                     read_prec_or_width@fmt:	
  1131                           ; 2 bytes @ 0x14
  1132                           
  1133     0034                     ctoa@w:	
  1134                           ; 1 bytes @ 0x14
  1135                           
  1136                           
  1137                           ; 2 bytes @ 0x14
  1138     0034                     	ds	1
  1139     0035                     ?_pad:
  1140     0035                     read_prec_or_width@ap:	
  1141                           ; 1 bytes @ 0x15
  1142                           
  1143     0035                     pad@fp:	
  1144                           ; 1 bytes @ 0x15
  1145                           
  1146     0035                     ??___lldiv:	
  1147                           ; 2 bytes @ 0x15
  1148                           
  1149                           
  1150                           ; 1 bytes @ 0x15
  1151     0035                     	ds	1
  1152     0036                     read_prec_or_width@c:
  1153     0036                     ___lldiv@quotient:	
  1154                           ; 1 bytes @ 0x16
  1155                           
  1156     0036                     ??___flmul:	
  1157                           ; 4 bytes @ 0x16
  1158                           
  1159     0036                     ??_read_prec_or_width:	
  1160                           ; 1 bytes @ 0x16
  1161                           
  1162                           
  1163                           ; 1 bytes @ 0x16
  1164     0036                     	ds	1
  1165     0037                     pad@buf:
  1166     0037                     read_prec_or_width@n:	
  1167                           ; 1 bytes @ 0x17
  1168                           
  1169                           
  1170                           ; 2 bytes @ 0x17
  1171     0037                     	ds	1
  1172     0038                     pad@p:
  1173                           
  1174                           ; 2 bytes @ 0x18
  1175     0038                     	ds	2
  1176     003A                     ___lldiv@counter:
  1177     003A                     ??_pad:	
  1178                           ; 1 bytes @ 0x1A
  1179                           
  1180                           
  1181                           ; 1 bytes @ 0x1A
  1182     003A                     	ds	1
  1183     003B                     ___flmul@sign:
  1184     003B                     pad@i:	
  1185                           ; 1 bytes @ 0x1B
  1186                           
  1187                           
  1188                           ; 2 bytes @ 0x1B
  1189     003B                     	ds	1
  1190     003C                     ___flmul@grs:
  1191                           
  1192                           ; 4 bytes @ 0x1C
  1193     003C                     	ds	1
  1194     003D                     ?_dtoa:
  1195     003D                     ?_utoa:	
  1196                           ; 1 bytes @ 0x1D
  1197                           
  1198     003D                     dtoa@fp:	
  1199                           ; 1 bytes @ 0x1D
  1200                           
  1201     003D                     utoa@fp:	
  1202                           ; 2 bytes @ 0x1D
  1203                           
  1204                           
  1205                           ; 2 bytes @ 0x1D
  1206     003D                     	ds	2
  1207     003F                     dtoa@d:
  1208     003F                     utoa@d:	
  1209                           ; 4 bytes @ 0x1F
  1210                           
  1211                           
  1212                           ; 4 bytes @ 0x1F
  1213     003F                     	ds	1
  1214     0040                     ___flmul@aexp:
  1215                           
  1216                           ; 1 bytes @ 0x20
  1217     0040                     	ds	1
  1218     0041                     ___flmul@bexp:
  1219                           
  1220                           ; 1 bytes @ 0x21
  1221     0041                     	ds	1
  1222     0042                     ___flmul@prod:
  1223                           
  1224                           ; 4 bytes @ 0x22
  1225     0042                     	ds	1
  1226     0043                     utoa@p:
  1227     0043                     _dtoa$931:	
  1228                           ; 1 bytes @ 0x23
  1229                           
  1230     0043                     ??_dtoa:	
  1231                           ; 2 bytes @ 0x23
  1232                           
  1233     0043                     ??_utoa:	
  1234                           ; 1 bytes @ 0x23
  1235                           
  1236                           
  1237                           ; 1 bytes @ 0x23
  1238     0043                     	ds	1
  1239     0044                     utoa@w:
  1240                           
  1241                           ; 2 bytes @ 0x24
  1242     0044                     	ds	1
  1243     0045                     dtoa@p:
  1244                           
  1245                           ; 1 bytes @ 0x25
  1246     0045                     	ds	1
  1247     0046                     ___flmul@temp:
  1248     0046                     dtoa@w:	
  1249                           ; 2 bytes @ 0x26
  1250                           
  1251     0046                     utoa@i:	
  1252                           ; 2 bytes @ 0x26
  1253                           
  1254                           
  1255                           ; 2 bytes @ 0x26
  1256     0046                     	ds	2
  1257     0048                     ?___fltol:
  1258     0048                     ?___fldiv:	
  1259                           ; 4 bytes @ 0x28
  1260                           
  1261     0048                     dtoa@s:	
  1262                           ; 4 bytes @ 0x28
  1263                           
  1264     0048                     ___fltol@f1:	
  1265                           ; 1 bytes @ 0x28
  1266                           
  1267     0048                     ___fldiv@a:	
  1268                           ; 4 bytes @ 0x28
  1269                           
  1270                           
  1271                           ; 4 bytes @ 0x28
  1272     0048                     	ds	1
  1273     0049                     dtoa@i:
  1274                           
  1275                           ; 2 bytes @ 0x29
  1276     0049                     	ds	2
  1277     004B                     ?_vfpfcnvrt:
  1278     004B                     vfpfcnvrt@fp:	
  1279                           ; 1 bytes @ 0x2B
  1280                           
  1281                           
  1282                           ; 2 bytes @ 0x2B
  1283     004B                     	ds	1
  1284     004C                     ___fldiv@b:
  1285     004C                     ??___fltol:	
  1286                           ; 4 bytes @ 0x2C
  1287                           
  1288                           
  1289                           ; 1 bytes @ 0x2C
  1290     004C                     	ds	1
  1291     004D                     vfpfcnvrt@fmt:
  1292                           
  1293                           ; 1 bytes @ 0x2D
  1294     004D                     	ds	1
  1295     004E                     vfpfcnvrt@ap:
  1296                           
  1297                           ; 1 bytes @ 0x2E
  1298     004E                     	ds	1
  1299     004F                     ??_vfpfcnvrt:
  1300                           
  1301                           ; 1 bytes @ 0x2F
  1302     004F                     	ds	1
  1303     0050                     ___fltol@sign1:
  1304     0050                     ??___fldiv:	
  1305                           ; 1 bytes @ 0x30
  1306                           
  1307                           
  1308                           ; 1 bytes @ 0x30
  1309     0050                     	ds	1
  1310     0051                     ___fltol@exp1:
  1311     0051                     vfpfcnvrt@done:	
  1312                           ; 1 bytes @ 0x31
  1313                           
  1314                           
  1315                           ; 1 bytes @ 0x31
  1316     0051                     	ds	1
  1317     0052                     vfpfcnvrt@convarg:
  1318                           
  1319                           ; 4 bytes @ 0x32
  1320     0052                     	ds	3
  1321     0055                     ___fldiv@rem:
  1322                           
  1323                           ; 4 bytes @ 0x35
  1324     0055                     	ds	1
  1325     0056                     vfpfcnvrt@c:
  1326                           
  1327                           ; 1 bytes @ 0x36
  1328     0056                     	ds	1
  1329     0057                     vfpfcnvrt@cp:
  1330                           
  1331                           ; 1 bytes @ 0x37
  1332     0057                     	ds	1
  1333     0058                     ?_vfprintf:
  1334     0058                     vfprintf@fp:	
  1335                           ; 2 bytes @ 0x38
  1336                           
  1337                           
  1338                           ; 2 bytes @ 0x38
  1339     0058                     	ds	1
  1340     0059                     ___fldiv@sign:
  1341                           
  1342                           ; 1 bytes @ 0x39
  1343     0059                     	ds	1
  1344     005A                     vfprintf@fmt:
  1345     005A                     ___fldiv@new_exp:	
  1346                           ; 1 bytes @ 0x3A
  1347                           
  1348                           
  1349                           ; 2 bytes @ 0x3A
  1350     005A                     	ds	1
  1351     005B                     vfprintf@ap:
  1352                           
  1353                           ; 1 bytes @ 0x3B
  1354     005B                     	ds	1
  1355     005C                     vfprintf@cfmt:
  1356     005C                     ___fldiv@grs:	
  1357                           ; 1 bytes @ 0x3C
  1358                           
  1359     005C                     ??_vfprintf:	
  1360                           ; 4 bytes @ 0x3C
  1361                           
  1362                           
  1363                           ; 1 bytes @ 0x3C
  1364     005C                     	ds	1
  1365     005D                     ?_sprintf:
  1366     005D                     sprintf@s:	
  1367                           ; 2 bytes @ 0x3D
  1368                           
  1369                           
  1370                           ; 1 bytes @ 0x3D
  1371     005D                     	ds	1
  1372     005E                     sprintf@fmt:
  1373                           
  1374                           ; 1 bytes @ 0x3E
  1375     005E                     	ds	2
  1376     0060                     ___fldiv@bexp:
  1377                           
  1378                           ; 1 bytes @ 0x40
  1379     0060                     	ds	1
  1380     0061                     ___fldiv@aexp:
  1381                           
  1382                           ; 1 bytes @ 0x41
  1383     0061                     	ds	1
  1384     0062                     ?___fladd:
  1385     0062                     ___fladd@b:	
  1386                           ; 4 bytes @ 0x42
  1387                           
  1388                           
  1389                           ; 4 bytes @ 0x42
  1390     0062                     	ds	3
  1391     0065                     ??_sprintf:
  1392                           
  1393                           ; 1 bytes @ 0x45
  1394     0065                     	ds	1
  1395     0066                     ___fladd@a:
  1396                           
  1397                           ; 4 bytes @ 0x46
  1398     0066                     	ds	4
  1399     006A                     ___fladd@signs:
  1400                           
  1401                           ; 1 bytes @ 0x4A
  1402     006A                     	ds	1
  1403     006B                     ___fladd@aexp:
  1404                           
  1405                           ; 1 bytes @ 0x4B
  1406     006B                     	ds	1
  1407     006C                     ___fladd@bexp:
  1408                           
  1409                           ; 1 bytes @ 0x4C
  1410     006C                     	ds	1
  1411     006D                     ___fladd@grs:
  1412                           
  1413                           ; 1 bytes @ 0x4D
  1414     006D                     	ds	1
  1415     006E                     ??_USART_init:
  1416     006E                     ??_main:	
  1417                           ; 1 bytes @ 0x4E
  1418                           
  1419                           
  1420                           ; 1 bytes @ 0x4E
  1421     006E                     	ds	2
  1422                           
  1423                           	psect	maintext
  1424     0030                     __pmaintext:	
  1425 ;;
  1426 ;;Main: autosize = 0, tempsize = 2, incstack = 0, save=0
  1427 ;;
  1428 ;; *************** function _main *****************
  1429 ;; Defined at:
  1430 ;;		line 27 in file "main_teste_speed.c"
  1431 ;; Parameters:    Size  Location     Type
  1432 ;;		None
  1433 ;; Auto vars:     Size  Location     Type
  1434 ;;  freq            4   50[BANK1 ] unsigned long 
  1435 ;;  vitess          4   24[BANK1 ] unsigned long 
  1436 ;;  freqRot         4   20[BANK1 ] unsigned long 
  1437 ;;  abs_v           2   56[BANK1 ] short 
  1438 ;;  abs_t           2   36[BANK1 ] short 
  1439 ;;  sign_t          1   39[BANK1 ] unsigned char 
  1440 ;;  sign_v          1   38[BANK1 ] unsigned char 
  1441 ;;  str_buffer     10   40[BANK1 ] unsigned char [10]
  1442 ;;  voltage_mV1     2   62[BANK1 ] short 
  1443 ;;  voltage_mV2     2   60[BANK1 ] short 
  1444 ;;  ADC_value1      2   58[BANK1 ] unsigned int 
  1445 ;;  ADC_value2      2   54[BANK1 ] unsigned int 
  1446 ;;  pot_percent     2   28[BANK1 ] short 
  1447 ;;  temp_mC         2    0        short 
  1448 ;; Return value:  Size  Location     Type
  1449 ;;                  1    wreg      void 
  1450 ;; Registers used:
  1451 ;;		wreg, fsr0l, fsr0h, status,2, status,0, btemp+1, pclath, cstack
  1452 ;; Tracked objects:
  1453 ;;		On entry : B00/0
  1454 ;;		On exit  : 0/0
  1455 ;;		Unchanged: 0/0
  1456 ;; Data sizes:     COMMON   BANK0   BANK1   BANK3   BANK2
  1457 ;;      Params:         0       0       0       0       0
  1458 ;;      Locals:         0       0      44       0       0
  1459 ;;      Temps:          0       2       0       0       0
  1460 ;;      Totals:         0       2      44       0       0
  1461 ;;Total ram usage:       46 bytes
  1462 ;; Hardware stack levels required when called: 9
  1463 ;; This function calls:
  1464 ;;		_ADC_Read1
  1465 ;;		_ADC_Read2
  1466 ;;		_Timer1_Init
  1467 ;;		_USART_Write_Char
  1468 ;;		_USART_Write_Text
  1469 ;;		_USART_init
  1470 ;;		___aldiv
  1471 ;;		___awdiv
  1472 ;;		___awmod
  1473 ;;		___flmul
  1474 ;;		___fltol
  1475 ;;		___lldiv
  1476 ;;		___lmul
  1477 ;;		___wmul
  1478 ;;		___xxtofl
  1479 ;;		_lcd_intial_4bits
  1480 ;;		_sprintf
  1481 ;; This function is called by:
  1482 ;;		Startup code after reset
  1483 ;; This function uses a non-reentrant model
  1484 ;;
  1485                           
  1486     0030                     _main:	
  1487                           ;psect for function _main
  1488                           
  1489     0030                     l3533:	
  1490                           ;incstack = 0
  1491 ;; hardware stack exceeded
  1492                           ; Regs used in _main: [wreg-fsr0h+status,2+status,0+btemp+1+pclath+cstack]
  1493                           
  1494                           
  1495                           ;main_teste_speed.c: 28:     lcd_intial_4bits();
  1496     0030  160A  158A  277C  120A  118A  	fcall	_lcd_intial_4bits
  1497     0035                     l3535:
  1498                           
  1499                           ;main_teste_speed.c: 29:     USART_init(4000000, 9600);
  1500     0035  304A               	movlw	74
  1501     0036  1683               	bsf	3,5	;RP0=1, select bank1
  1502     0037  1303               	bcf	3,6	;RP1=0, select bank1
  1503     0038  00AB               	movwf	(USART_init@Fosc+3)^(0+128)
  1504     0039  3074               	movlw	116
  1505     003A  00AA               	movwf	(USART_init@Fosc+2)^(0+128)
  1506     003B  3024               	movlw	36
  1507     003C  00A9               	movwf	(USART_init@Fosc+1)^(0+128)
  1508     003D  3000               	movlw	0
  1509     003E  00A8               	movwf	USART_init@Fosc^(0+128)
  1510     003F  3046               	movlw	70
  1511     0040  00AF               	movwf	(USART_init@BaudRate+3)^(0+128)
  1512     0041  3016               	movlw	22
  1513     0042  00AE               	movwf	(USART_init@BaudRate+2)^(0+128)
  1514     0043  3000               	movlw	0
  1515     0044  00AD               	movwf	(USART_init@BaudRate+1)^(0+128)
  1516     0045  3000               	movlw	0
  1517     0046  00AC               	movwf	USART_init@BaudRate^(0+128)
  1518     0047  160A  118A  25BE  120A  118A  	fcall	_USART_init
  1519     004C                     l3537:
  1520                           
  1521                           ;main_teste_speed.c: 31:     unsigned int ADC_value1;;main_teste_speed.c: 32:     unsign
      +                          ed int ADC_value2;;main_teste_speed.c: 33:     int16_t voltage_mV1, voltage_mV2;;main_te
      +                          ste_speed.c: 34:     int16_t temp_mC, pot_percent;;main_teste_speed.c: 35:     char str_
      +                          buffer[10];;main_teste_speed.c: 37:     TRISB0 = 1;
  1522     004C  1683               	bsf	3,5	;RP0=1, select bank1
  1523     004D  1303               	bcf	3,6	;RP1=0, select bank1
  1524     004E  1406               	bsf	6,0	;volatile
  1525     004F                     l3539:
  1526                           
  1527                           ;main_teste_speed.c: 38:     Timer1_Init();
  1528     004F  160A  158A  2609  120A  118A  	fcall	_Timer1_Init
  1529     0054                     l3541:
  1530                           
  1531                           ;main_teste_speed.c: 39:     OPTION_REGbits.INTEDG = 1 ;
  1532     0054  1683               	bsf	3,5	;RP0=1, select bank1
  1533     0055  1303               	bcf	3,6	;RP1=0, select bank1
  1534     0056  1701               	bsf	1,6	;volatile
  1535     0057                     l3543:
  1536                           
  1537                           ;main_teste_speed.c: 40:     INTCONbits.INTE = 1;
  1538     0057  160B               	bsf	11,4	;volatile
  1539     0058                     l3545:
  1540                           
  1541                           ;main_teste_speed.c: 41:     INTCONbits.GIE = 1;
  1542     0058  178B               	bsf	11,7	;volatile
  1543     0059                     l3547:
  1544                           
  1545                           ;main_teste_speed.c: 42:     INTCONbits.T0IE = 0;
  1546     0059  128B               	bcf	11,5	;volatile
  1547     005A                     l3549:
  1548                           
  1549                           ;main_teste_speed.c: 45:      TRISC2 = 1;
  1550     005A  1507               	bsf	7,2	;volatile
  1551     005B                     l3551:
  1552                           
  1553                           ;main_teste_speed.c: 48:      CCP1CON = 0b00000101;
  1554     005B  3005               	movlw	5
  1555     005C  1283               	bcf	3,5	;RP0=0, select bank0
  1556     005D  1303               	bcf	3,6	;RP1=0, select bank0
  1557     005E  0097               	movwf	23	;volatile
  1558     005F                     l3553:
  1559                           
  1560                           ;main_teste_speed.c: 51:     PIE1bits.CCP1IE = 1;
  1561     005F  1683               	bsf	3,5	;RP0=1, select bank1
  1562     0060  1303               	bcf	3,6	;RP1=0, select bank1
  1563     0061  150C               	bsf	12,2	;volatile
  1564     0062                     l3555:
  1565                           
  1566                           ;main_teste_speed.c: 52:     INTCONbits.PEIE = 1;
  1567     0062  170B               	bsf	11,6	;volatile
  1568     0063                     l3557:
  1569                           
  1570                           ;main_teste_speed.c: 53:     INTCONbits.GIE = 1;
  1571     0063  178B               	bsf	11,7	;volatile
  1572     0064                     l3559:
  1573                           
  1574                           ;main_teste_speed.c: 57:         ADC_value1 = ADC_Read1();
  1575     0064  160A  158A  2678  120A  118A  	fcall	_ADC_Read1
  1576     0069  1283               	bcf	3,5	;RP0=0, select bank0
  1577     006A  1303               	bcf	3,6	;RP1=0, select bank0
  1578     006B  0821               	movf	?_ADC_Read1+1,w
  1579     006C  1683               	bsf	3,5	;RP0=1, select bank1
  1580     006D  1303               	bcf	3,6	;RP1=0, select bank1
  1581     006E  00DB               	movwf	(main@ADC_value1+1)^(0+128)
  1582     006F  1283               	bcf	3,5	;RP0=0, select bank0
  1583     0070  1303               	bcf	3,6	;RP1=0, select bank0
  1584     0071  0820               	movf	?_ADC_Read1,w
  1585     0072  1683               	bsf	3,5	;RP0=1, select bank1
  1586     0073  1303               	bcf	3,6	;RP1=0, select bank1
  1587     0074  00DA               	movwf	main@ADC_value1^(0+128)
  1588     0075                     l3561:
  1589                           
  1590                           ;main_teste_speed.c: 58:         sprintf(str_buffer, "%4u", ADC_value1);
  1591     0075  30C8               	movlw	(low (main@str_buffer| 0))& (0+255)
  1592     0076  1283               	bcf	3,5	;RP0=0, select bank0
  1593     0077  1303               	bcf	3,6	;RP1=0, select bank0
  1594     0078  00DD               	movwf	sprintf@s
  1595     0079  306A               	movlw	(low ((STR_1-__stringbase)| (0+32768)))& (0+255)
  1596     007A  00DE               	movwf	sprintf@fmt
  1597     007B  1683               	bsf	3,5	;RP0=1, select bank1
  1598     007C  1303               	bcf	3,6	;RP1=0, select bank1
  1599     007D  085B               	movf	(main@ADC_value1+1)^(0+128),w
  1600     007E  1283               	bcf	3,5	;RP0=0, select bank0
  1601     007F  1303               	bcf	3,6	;RP1=0, select bank0
  1602     0080  00E0               	movwf	?_sprintf+3
  1603     0081  1683               	bsf	3,5	;RP0=1, select bank1
  1604     0082  1303               	bcf	3,6	;RP1=0, select bank1
  1605     0083  085A               	movf	main@ADC_value1^(0+128),w
  1606     0084  1283               	bcf	3,5	;RP0=0, select bank0
  1607     0085  1303               	bcf	3,6	;RP1=0, select bank0
  1608     0086  00DF               	movwf	?_sprintf+2
  1609     0087  160A  118A  2091  120A  118A  	fcall	_sprintf
  1610     008C                     l3563:
  1611                           
  1612                           ;main_teste_speed.c: 59:         USART_Write_Text("ADC1(AN4)=");
  1613     008C  3033               	movlw	(low ((STR_2-__stringbase)| (0+32768)))& (0+255)
  1614     008D  1283               	bcf	3,5	;RP0=0, select bank0
  1615     008E  1303               	bcf	3,6	;RP1=0, select bank0
  1616     008F  00A1               	movwf	USART_Write_Text@str
  1617     0090  3080               	movlw	128
  1618     0091  00A2               	movwf	USART_Write_Text@str+1
  1619     0092  160A  158A  26C4  120A  118A  	fcall	_USART_Write_Text
  1620     0097                     l3565:
  1621                           
  1622                           ;main_teste_speed.c: 60:         USART_Write_Text(str_buffer);
  1623     0097  30C8               	movlw	(low (main@str_buffer| 0))& (0+255)
  1624     0098  1283               	bcf	3,5	;RP0=0, select bank0
  1625     0099  1303               	bcf	3,6	;RP1=0, select bank0
  1626     009A  00A1               	movwf	USART_Write_Text@str
  1627     009B  3000               	movlw	0
  1628     009C  00A2               	movwf	USART_Write_Text@str+1
  1629     009D  160A  158A  26C4  120A  118A  	fcall	_USART_Write_Text
  1630     00A2                     l3567:
  1631                           
  1632                           ;main_teste_speed.c: 61:         USART_Write_Char('\r');
  1633     00A2  300D               	movlw	13
  1634     00A3  120A  158A  2003  120A  118A  	fcall	_USART_Write_Char
  1635     00A8                     l3569:
  1636                           
  1637                           ;main_teste_speed.c: 63:         voltage_mV1 = ((uint32_t)ADC_value1 * 2050) / 1023 - 55
      +                          0;
  1638     00A8  3000               	movlw	0
  1639     00A9  1283               	bcf	3,5	;RP0=0, select bank0
  1640     00AA  1303               	bcf	3,6	;RP1=0, select bank0
  1641     00AB  00B0               	movwf	___lldiv@divisor+3
  1642     00AC  3000               	movlw	0
  1643     00AD  00AF               	movwf	___lldiv@divisor+2
  1644     00AE  3003               	movlw	3
  1645     00AF  00AE               	movwf	___lldiv@divisor+1
  1646     00B0  30FF               	movlw	255
  1647     00B1  00AD               	movwf	___lldiv@divisor
  1648     00B2  1683               	bsf	3,5	;RP0=1, select bank1
  1649     00B3  1303               	bcf	3,6	;RP1=0, select bank1
  1650     00B4  085A               	movf	main@ADC_value1^(0+128),w
  1651     00B5  1283               	bcf	3,5	;RP0=0, select bank0
  1652     00B6  1303               	bcf	3,6	;RP1=0, select bank0
  1653     00B7  00A0               	movwf	___lmul@multiplier
  1654     00B8  1683               	bsf	3,5	;RP0=1, select bank1
  1655     00B9  1303               	bcf	3,6	;RP1=0, select bank1
  1656     00BA  085B               	movf	(main@ADC_value1+1)^(0+128),w
  1657     00BB  1283               	bcf	3,5	;RP0=0, select bank0
  1658     00BC  1303               	bcf	3,6	;RP1=0, select bank0
  1659     00BD  00A1               	movwf	___lmul@multiplier+1
  1660     00BE  01A2               	clrf	___lmul@multiplier+2
  1661     00BF  01A3               	clrf	___lmul@multiplier+3
  1662     00C0  3000               	movlw	0
  1663     00C1  00A7               	movwf	___lmul@multiplicand+3
  1664     00C2  3000               	movlw	0
  1665     00C3  00A6               	movwf	___lmul@multiplicand+2
  1666     00C4  3008               	movlw	8
  1667     00C5  00A5               	movwf	___lmul@multiplicand+1
  1668     00C6  3002               	movlw	2
  1669     00C7  00A4               	movwf	___lmul@multiplicand
  1670     00C8  160A  158A  27B8  120A  118A  	fcall	___lmul
  1671     00CD  1283               	bcf	3,5	;RP0=0, select bank0
  1672     00CE  1303               	bcf	3,6	;RP1=0, select bank0
  1673     00CF  0823               	movf	?___lmul+3,w
  1674     00D0  00B4               	movwf	___lldiv@dividend+3
  1675     00D1  0822               	movf	?___lmul+2,w
  1676     00D2  00B3               	movwf	___lldiv@dividend+2
  1677     00D3  0821               	movf	?___lmul+1,w
  1678     00D4  00B2               	movwf	___lldiv@dividend+1
  1679     00D5  0820               	movf	?___lmul,w
  1680     00D6  00B1               	movwf	___lldiv@dividend
  1681     00D7  160A  118A  221C  120A  118A  	fcall	___lldiv
  1682     00DC  1283               	bcf	3,5	;RP0=0, select bank0
  1683     00DD  1303               	bcf	3,6	;RP1=0, select bank0
  1684     00DE  082D               	movf	?___lldiv,w
  1685     00DF  3EDA               	addlw	218
  1686     00E0  1683               	bsf	3,5	;RP0=1, select bank1
  1687     00E1  1303               	bcf	3,6	;RP1=0, select bank1
  1688     00E2  00DE               	movwf	main@voltage_mV1^(0+128)
  1689     00E3  1283               	bcf	3,5	;RP0=0, select bank0
  1690     00E4  1303               	bcf	3,6	;RP1=0, select bank0
  1691     00E5  082E               	movf	?___lldiv+1,w
  1692     00E6  1803               	skipnc
  1693     00E7  3E01               	addlw	1
  1694     00E8  3EFD               	addlw	253
  1695     00E9  1683               	bsf	3,5	;RP0=1, select bank1
  1696     00EA  1303               	bcf	3,6	;RP1=0, select bank1
  1697     00EB  00DF               	movwf	(main@voltage_mV1+1)^(0+128)
  1698     00EC                     l3571:
  1699     00EC  085F               	movf	(main@voltage_mV1+1)^(0+128),w
  1700     00ED  1283               	bcf	3,5	;RP0=0, select bank0
  1701     00EE  1303               	bcf	3,6	;RP1=0, select bank0
  1702     00EF  00AF               	movwf	___wmul@multiplier+1
  1703     00F0  1683               	bsf	3,5	;RP0=1, select bank1
  1704     00F1  1303               	bcf	3,6	;RP1=0, select bank1
  1705     00F2  085E               	movf	main@voltage_mV1^(0+128),w
  1706     00F3  1283               	bcf	3,5	;RP0=0, select bank0
  1707     00F4  1303               	bcf	3,6	;RP1=0, select bank0
  1708     00F5  00AE               	movwf	___wmul@multiplier
  1709     00F6  3064               	movlw	100
  1710     00F7  00B0               	movwf	___wmul@multiplicand
  1711     00F8  3000               	movlw	0
  1712     00F9  00B1               	movwf	___wmul@multiplicand+1
  1713     00FA  160A  158A  269D  120A  118A  	fcall	___wmul
  1714     00FF                     l3573:
  1715                           
  1716                           ;main_teste_speed.c: 67:         char sign_v = (voltage_mV1 < 0) ? '-' : ' ';
  1717     00FF  1683               	bsf	3,5	;RP0=1, select bank1
  1718     0100  1303               	bcf	3,6	;RP1=0, select bank1
  1719     0101  1BDF               	btfsc	(main@voltage_mV1+1)^(0+128),7
  1720     0102  2904               	goto	u5071
  1721     0103  2905               	goto	u5070
  1722     0104                     u5071:
  1723     0104  290A               	goto	l3577
  1724     0105                     u5070:
  1725     0105                     l3575:
  1726     0105  3020               	movlw	32
  1727     0106  00C0               	movwf	_main$373^(0+128)
  1728     0107  3000               	movlw	0
  1729     0108  00C1               	movwf	(_main$373^(0+128)+1)
  1730     0109  290E               	goto	l158
  1731     010A                     l3577:
  1732     010A  302D               	movlw	45
  1733     010B  00C0               	movwf	_main$373^(0+128)
  1734     010C  3000               	movlw	0
  1735     010D  00C1               	movwf	(_main$373^(0+128)+1)
  1736     010E                     l158:
  1737     010E  0840               	movf	_main$373^(0+128),w
  1738     010F  00C6               	movwf	main@sign_v^(0+128)
  1739     0110                     l3579:
  1740                           
  1741                           ;main_teste_speed.c: 68:         int16_t abs_v = (voltage_mV1 < 0) ? -voltage_mV1 : volt
      +                          age_mV1;
  1742     0110  1BDF               	btfsc	(main@voltage_mV1+1)^(0+128),7
  1743     0111  2913               	goto	u5081
  1744     0112  2914               	goto	u5080
  1745     0113                     u5081:
  1746     0113  2919               	goto	l3583
  1747     0114                     u5080:
  1748     0114                     l3581:
  1749     0114  085F               	movf	(main@voltage_mV1+1)^(0+128),w
  1750     0115  00D9               	movwf	(main@abs_v+1)^(0+128)
  1751     0116  085E               	movf	main@voltage_mV1^(0+128),w
  1752     0117  00D8               	movwf	main@abs_v^(0+128)
  1753     0118  2930               	goto	l3585
  1754     0119                     l3583:
  1755     0119  095E               	comf	main@voltage_mV1^(0+128),w
  1756     011A  1283               	bcf	3,5	;RP0=0, select bank0
  1757     011B  1303               	bcf	3,6	;RP1=0, select bank0
  1758     011C  00EE               	movwf	??_main
  1759     011D  1683               	bsf	3,5	;RP0=1, select bank1
  1760     011E  1303               	bcf	3,6	;RP1=0, select bank1
  1761     011F  095F               	comf	(main@voltage_mV1+1)^(0+128),w
  1762     0120  1283               	bcf	3,5	;RP0=0, select bank0
  1763     0121  1303               	bcf	3,6	;RP1=0, select bank0
  1764     0122  00EF               	movwf	??_main+1
  1765     0123  0AEE               	incf	??_main,f
  1766     0124  1903               	skipnz
  1767     0125  0AEF               	incf	??_main+1,f
  1768     0126  086E               	movf	??_main,w
  1769     0127  1683               	bsf	3,5	;RP0=1, select bank1
  1770     0128  1303               	bcf	3,6	;RP1=0, select bank1
  1771     0129  00D8               	movwf	main@abs_v^(0+128)
  1772     012A  1283               	bcf	3,5	;RP0=0, select bank0
  1773     012B  1303               	bcf	3,6	;RP1=0, select bank0
  1774     012C  086F               	movf	??_main+1,w
  1775     012D  1683               	bsf	3,5	;RP0=1, select bank1
  1776     012E  1303               	bcf	3,6	;RP1=0, select bank1
  1777     012F  00D9               	movwf	(main@abs_v+1)^(0+128)
  1778     0130                     l3585:
  1779                           
  1780                           ;main_teste_speed.c: 69:         sprintf(str_buffer, "%c%d.%02d", sign_v, abs_v / 1000, 
      +                          (abs_v % 1000) / 10);
  1781     0130  30C8               	movlw	(low (main@str_buffer| 0))& (0+255)
  1782     0131  1283               	bcf	3,5	;RP0=0, select bank0
  1783     0132  1303               	bcf	3,6	;RP1=0, select bank0
  1784     0133  00DD               	movwf	sprintf@s
  1785     0134  303E               	movlw	(low ((STR_3-__stringbase)| (0+32768)))& (0+255)
  1786     0135  00DE               	movwf	sprintf@fmt
  1787     0136  1683               	bsf	3,5	;RP0=1, select bank1
  1788     0137  1303               	bcf	3,6	;RP1=0, select bank1
  1789     0138  0846               	movf	main@sign_v^(0+128),w
  1790     0139  1283               	bcf	3,5	;RP0=0, select bank0
  1791     013A  1303               	bcf	3,6	;RP1=0, select bank0
  1792     013B  00EE               	movwf	??_main
  1793     013C  01EF               	clrf	??_main+1
  1794     013D  086E               	movf	??_main,w
  1795     013E  00DF               	movwf	?_sprintf+2
  1796     013F  086F               	movf	??_main+1,w
  1797     0140  00E0               	movwf	?_sprintf+3
  1798     0141  30E8               	movlw	232
  1799     0142  00A6               	movwf	___awdiv@divisor
  1800     0143  3003               	movlw	3
  1801     0144  00A7               	movwf	___awdiv@divisor+1
  1802     0145  1683               	bsf	3,5	;RP0=1, select bank1
  1803     0146  1303               	bcf	3,6	;RP1=0, select bank1
  1804     0147  0859               	movf	(main@abs_v+1)^(0+128),w
  1805     0148  1283               	bcf	3,5	;RP0=0, select bank0
  1806     0149  1303               	bcf	3,6	;RP1=0, select bank0
  1807     014A  00A9               	movwf	___awdiv@dividend+1
  1808     014B  1683               	bsf	3,5	;RP0=1, select bank1
  1809     014C  1303               	bcf	3,6	;RP1=0, select bank1
  1810     014D  0858               	movf	main@abs_v^(0+128),w
  1811     014E  1283               	bcf	3,5	;RP0=0, select bank0
  1812     014F  1303               	bcf	3,6	;RP1=0, select bank0
  1813     0150  00A8               	movwf	___awdiv@dividend
  1814     0151  160A  118A  21B7  120A  118A  	fcall	___awdiv
  1815     0156  1283               	bcf	3,5	;RP0=0, select bank0
  1816     0157  1303               	bcf	3,6	;RP1=0, select bank0
  1817     0158  0827               	movf	?___awdiv+1,w
  1818     0159  00E2               	movwf	?_sprintf+5
  1819     015A  0826               	movf	?___awdiv,w
  1820     015B  00E1               	movwf	?_sprintf+4
  1821     015C  300A               	movlw	10
  1822     015D  00A6               	movwf	___awdiv@divisor
  1823     015E  3000               	movlw	0
  1824     015F  00A7               	movwf	___awdiv@divisor+1
  1825     0160  1683               	bsf	3,5	;RP0=1, select bank1
  1826     0161  1303               	bcf	3,6	;RP1=0, select bank1
  1827     0162  0859               	movf	(main@abs_v+1)^(0+128),w
  1828     0163  1283               	bcf	3,5	;RP0=0, select bank0
  1829     0164  1303               	bcf	3,6	;RP1=0, select bank0
  1830     0165  00A3               	movwf	___awmod@dividend+1
  1831     0166  1683               	bsf	3,5	;RP0=1, select bank1
  1832     0167  1303               	bcf	3,6	;RP1=0, select bank1
  1833     0168  0858               	movf	main@abs_v^(0+128),w
  1834     0169  1283               	bcf	3,5	;RP0=0, select bank0
  1835     016A  1303               	bcf	3,6	;RP1=0, select bank0
  1836     016B  00A2               	movwf	___awmod@dividend
  1837     016C  30E8               	movlw	232
  1838     016D  00A0               	movwf	___awmod@divisor
  1839     016E  3003               	movlw	3
  1840     016F  00A1               	movwf	___awmod@divisor+1
  1841     0170  120A  118A  27A2  120A  118A  	fcall	___awmod
  1842     0175  1283               	bcf	3,5	;RP0=0, select bank0
  1843     0176  1303               	bcf	3,6	;RP1=0, select bank0
  1844     0177  0821               	movf	?___awmod+1,w
  1845     0178  00A9               	movwf	___awdiv@dividend+1
  1846     0179  0820               	movf	?___awmod,w
  1847     017A  00A8               	movwf	___awdiv@dividend
  1848     017B  160A  118A  21B7  120A  118A  	fcall	___awdiv
  1849     0180  1283               	bcf	3,5	;RP0=0, select bank0
  1850     0181  1303               	bcf	3,6	;RP1=0, select bank0
  1851     0182  0827               	movf	?___awdiv+1,w
  1852     0183  00E4               	movwf	?_sprintf+7
  1853     0184  0826               	movf	?___awdiv,w
  1854     0185  00E3               	movwf	?_sprintf+6
  1855     0186  160A  118A  2091  120A  118A  	fcall	_sprintf
  1856     018B                     l3587:
  1857                           
  1858                           ;main_teste_speed.c: 70:         USART_Write_Text("V=");
  1859     018B  3076               	movlw	(low ((STR_4-__stringbase)| (0+32768)))& (0+255)
  1860     018C  1283               	bcf	3,5	;RP0=0, select bank0
  1861     018D  1303               	bcf	3,6	;RP1=0, select bank0
  1862     018E  00A1               	movwf	USART_Write_Text@str
  1863     018F  3080               	movlw	128
  1864     0190  00A2               	movwf	USART_Write_Text@str+1
  1865     0191  160A  158A  26C4  120A  118A  	fcall	_USART_Write_Text
  1866     0196                     l3589:
  1867                           
  1868                           ;main_teste_speed.c: 71:         USART_Write_Text(str_buffer);
  1869     0196  30C8               	movlw	(low (main@str_buffer| 0))& (0+255)
  1870     0197  1283               	bcf	3,5	;RP0=0, select bank0
  1871     0198  1303               	bcf	3,6	;RP1=0, select bank0
  1872     0199  00A1               	movwf	USART_Write_Text@str
  1873     019A  3000               	movlw	0
  1874     019B  00A2               	movwf	USART_Write_Text@str+1
  1875     019C  160A  158A  26C4  120A  118A  	fcall	_USART_Write_Text
  1876     01A1                     l3591:
  1877                           
  1878                           ;main_teste_speed.c: 72:         USART_Write_Char('V');
  1879     01A1  3056               	movlw	86
  1880     01A2  120A  158A  2003  120A  118A  	fcall	_USART_Write_Char
  1881     01A7                     l3593:
  1882                           
  1883                           ;main_teste_speed.c: 73:         USART_Write_Char('\r');
  1884     01A7  300D               	movlw	13
  1885     01A8  120A  158A  2003  120A  118A  	fcall	_USART_Write_Char
  1886     01AD                     l3595:
  1887                           
  1888                           ;main_teste_speed.c: 74:         voltage_mV1 = ((uint32_t)ADC_value1 * 2050) / 1023 - 55
      +                          0;
  1889     01AD  3000               	movlw	0
  1890     01AE  1283               	bcf	3,5	;RP0=0, select bank0
  1891     01AF  1303               	bcf	3,6	;RP1=0, select bank0
  1892     01B0  00B0               	movwf	___lldiv@divisor+3
  1893     01B1  3000               	movlw	0
  1894     01B2  00AF               	movwf	___lldiv@divisor+2
  1895     01B3  3003               	movlw	3
  1896     01B4  00AE               	movwf	___lldiv@divisor+1
  1897     01B5  30FF               	movlw	255
  1898     01B6  00AD               	movwf	___lldiv@divisor
  1899     01B7  1683               	bsf	3,5	;RP0=1, select bank1
  1900     01B8  1303               	bcf	3,6	;RP1=0, select bank1
  1901     01B9  085A               	movf	main@ADC_value1^(0+128),w
  1902     01BA  1283               	bcf	3,5	;RP0=0, select bank0
  1903     01BB  1303               	bcf	3,6	;RP1=0, select bank0
  1904     01BC  00A0               	movwf	___lmul@multiplier
  1905     01BD  1683               	bsf	3,5	;RP0=1, select bank1
  1906     01BE  1303               	bcf	3,6	;RP1=0, select bank1
  1907     01BF  085B               	movf	(main@ADC_value1+1)^(0+128),w
  1908     01C0  1283               	bcf	3,5	;RP0=0, select bank0
  1909     01C1  1303               	bcf	3,6	;RP1=0, select bank0
  1910     01C2  00A1               	movwf	___lmul@multiplier+1
  1911     01C3  01A2               	clrf	___lmul@multiplier+2
  1912     01C4  01A3               	clrf	___lmul@multiplier+3
  1913     01C5  3000               	movlw	0
  1914     01C6  00A7               	movwf	___lmul@multiplicand+3
  1915     01C7  3000               	movlw	0
  1916     01C8  00A6               	movwf	___lmul@multiplicand+2
  1917     01C9  3008               	movlw	8
  1918     01CA  00A5               	movwf	___lmul@multiplicand+1
  1919     01CB  3002               	movlw	2
  1920     01CC  00A4               	movwf	___lmul@multiplicand
  1921     01CD  160A  158A  27B8  120A  118A  	fcall	___lmul
  1922     01D2  1283               	bcf	3,5	;RP0=0, select bank0
  1923     01D3  1303               	bcf	3,6	;RP1=0, select bank0
  1924     01D4  0823               	movf	?___lmul+3,w
  1925     01D5  00B4               	movwf	___lldiv@dividend+3
  1926     01D6  0822               	movf	?___lmul+2,w
  1927     01D7  00B3               	movwf	___lldiv@dividend+2
  1928     01D8  0821               	movf	?___lmul+1,w
  1929     01D9  00B2               	movwf	___lldiv@dividend+1
  1930     01DA  0820               	movf	?___lmul,w
  1931     01DB  00B1               	movwf	___lldiv@dividend
  1932     01DC  160A  118A  221C  120A  118A  	fcall	___lldiv
  1933     01E1  1283               	bcf	3,5	;RP0=0, select bank0
  1934     01E2  1303               	bcf	3,6	;RP1=0, select bank0
  1935     01E3  082D               	movf	?___lldiv,w
  1936     01E4  3EDA               	addlw	218
  1937     01E5  1683               	bsf	3,5	;RP0=1, select bank1
  1938     01E6  1303               	bcf	3,6	;RP1=0, select bank1
  1939     01E7  00DE               	movwf	main@voltage_mV1^(0+128)
  1940     01E8  1283               	bcf	3,5	;RP0=0, select bank0
  1941     01E9  1303               	bcf	3,6	;RP1=0, select bank0
  1942     01EA  082E               	movf	?___lldiv+1,w
  1943     01EB  1803               	skipnc
  1944     01EC  3E01               	addlw	1
  1945     01ED  3EFD               	addlw	253
  1946     01EE  1683               	bsf	3,5	;RP0=1, select bank1
  1947     01EF  1303               	bcf	3,6	;RP1=0, select bank1
  1948     01F0  00DF               	movwf	(main@voltage_mV1+1)^(0+128)
  1949     01F1                     l3597:
  1950                           
  1951                           ;main_teste_speed.c: 76:         char sign_t = (voltage_mV1 < 0) ? '-' : ' ';
  1952     01F1  1BDF               	btfsc	(main@voltage_mV1+1)^(0+128),7
  1953     01F2  29F4               	goto	u5091
  1954     01F3  29F5               	goto	u5090
  1955     01F4                     u5091:
  1956     01F4  29FA               	goto	l3601
  1957     01F5                     u5090:
  1958     01F5                     l3599:
  1959     01F5  3020               	movlw	32
  1960     01F6  00C2               	movwf	_main$378^(0+128)
  1961     01F7  3000               	movlw	0
  1962     01F8  00C3               	movwf	(_main$378^(0+128)+1)
  1963     01F9  29FE               	goto	l166
  1964     01FA                     l3601:
  1965     01FA  302D               	movlw	45
  1966     01FB  00C2               	movwf	_main$378^(0+128)
  1967     01FC  3000               	movlw	0
  1968     01FD  00C3               	movwf	(_main$378^(0+128)+1)
  1969     01FE                     l166:
  1970     01FE  0842               	movf	_main$378^(0+128),w
  1971     01FF  00C7               	movwf	main@sign_t^(0+128)
  1972     0200                     l3603:
  1973                           
  1974                           ;main_teste_speed.c: 77:         int16_t abs_t = (voltage_mV1 < 0) ? -voltage_mV1 : volt
      +                          age_mV1;
  1975     0200  1BDF               	btfsc	(main@voltage_mV1+1)^(0+128),7
  1976     0201  2A03               	goto	u5101
  1977     0202  2A04               	goto	u5100
  1978     0203                     u5101:
  1979     0203  2A09               	goto	l3607
  1980     0204                     u5100:
  1981     0204                     l3605:
  1982     0204  085F               	movf	(main@voltage_mV1+1)^(0+128),w
  1983     0205  00C5               	movwf	(main@abs_t+1)^(0+128)
  1984     0206  085E               	movf	main@voltage_mV1^(0+128),w
  1985     0207  00C4               	movwf	main@abs_t^(0+128)
  1986     0208  2A20               	goto	l3609
  1987     0209                     l3607:
  1988     0209  095E               	comf	main@voltage_mV1^(0+128),w
  1989     020A  1283               	bcf	3,5	;RP0=0, select bank0
  1990     020B  1303               	bcf	3,6	;RP1=0, select bank0
  1991     020C  00EE               	movwf	??_main
  1992     020D  1683               	bsf	3,5	;RP0=1, select bank1
  1993     020E  1303               	bcf	3,6	;RP1=0, select bank1
  1994     020F  095F               	comf	(main@voltage_mV1+1)^(0+128),w
  1995     0210  1283               	bcf	3,5	;RP0=0, select bank0
  1996     0211  1303               	bcf	3,6	;RP1=0, select bank0
  1997     0212  00EF               	movwf	??_main+1
  1998     0213  0AEE               	incf	??_main,f
  1999     0214  1903               	skipnz
  2000     0215  0AEF               	incf	??_main+1,f
  2001     0216  086E               	movf	??_main,w
  2002     0217  1683               	bsf	3,5	;RP0=1, select bank1
  2003     0218  1303               	bcf	3,6	;RP1=0, select bank1
  2004     0219  00C4               	movwf	main@abs_t^(0+128)
  2005     021A  1283               	bcf	3,5	;RP0=0, select bank0
  2006     021B  1303               	bcf	3,6	;RP1=0, select bank0
  2007     021C  086F               	movf	??_main+1,w
  2008     021D  1683               	bsf	3,5	;RP0=1, select bank1
  2009     021E  1303               	bcf	3,6	;RP1=0, select bank1
  2010     021F  00C5               	movwf	(main@abs_t+1)^(0+128)
  2011     0220                     l3609:
  2012                           
  2013                           ;main_teste_speed.c: 78:         sprintf(str_buffer, "%c%d", sign_t, abs_t / 10);
  2014     0220  30C8               	movlw	(low (main@str_buffer| 0))& (0+255)
  2015     0221  1283               	bcf	3,5	;RP0=0, select bank0
  2016     0222  1303               	bcf	3,6	;RP1=0, select bank0
  2017     0223  00DD               	movwf	sprintf@s
  2018     0224  3061               	movlw	(low ((STR_5-__stringbase)| (0+32768)))& (0+255)
  2019     0225  00DE               	movwf	sprintf@fmt
  2020     0226  1683               	bsf	3,5	;RP0=1, select bank1
  2021     0227  1303               	bcf	3,6	;RP1=0, select bank1
  2022     0228  0847               	movf	main@sign_t^(0+128),w
  2023     0229  1283               	bcf	3,5	;RP0=0, select bank0
  2024     022A  1303               	bcf	3,6	;RP1=0, select bank0
  2025     022B  00EE               	movwf	??_main
  2026     022C  01EF               	clrf	??_main+1
  2027     022D  086E               	movf	??_main,w
  2028     022E  00DF               	movwf	?_sprintf+2
  2029     022F  086F               	movf	??_main+1,w
  2030     0230  00E0               	movwf	?_sprintf+3
  2031     0231  300A               	movlw	10
  2032     0232  00A6               	movwf	___awdiv@divisor
  2033     0233  3000               	movlw	0
  2034     0234  00A7               	movwf	___awdiv@divisor+1
  2035     0235  1683               	bsf	3,5	;RP0=1, select bank1
  2036     0236  1303               	bcf	3,6	;RP1=0, select bank1
  2037     0237  0845               	movf	(main@abs_t+1)^(0+128),w
  2038     0238  1283               	bcf	3,5	;RP0=0, select bank0
  2039     0239  1303               	bcf	3,6	;RP1=0, select bank0
  2040     023A  00A9               	movwf	___awdiv@dividend+1
  2041     023B  1683               	bsf	3,5	;RP0=1, select bank1
  2042     023C  1303               	bcf	3,6	;RP1=0, select bank1
  2043     023D  0844               	movf	main@abs_t^(0+128),w
  2044     023E  1283               	bcf	3,5	;RP0=0, select bank0
  2045     023F  1303               	bcf	3,6	;RP1=0, select bank0
  2046     0240  00A8               	movwf	___awdiv@dividend
  2047     0241  160A  118A  21B7  120A  118A  	fcall	___awdiv
  2048     0246  1283               	bcf	3,5	;RP0=0, select bank0
  2049     0247  1303               	bcf	3,6	;RP1=0, select bank0
  2050     0248  0827               	movf	?___awdiv+1,w
  2051     0249  00E2               	movwf	?_sprintf+5
  2052     024A  0826               	movf	?___awdiv,w
  2053     024B  00E1               	movwf	?_sprintf+4
  2054     024C  160A  118A  2091  120A  118A  	fcall	_sprintf
  2055     0251                     l3611:
  2056                           
  2057                           ;main_teste_speed.c: 79:         USART_Write_Text("temp=");
  2058     0251  3050               	movlw	(low ((STR_6-__stringbase)| (0+32768)))& (0+255)
  2059     0252  1283               	bcf	3,5	;RP0=0, select bank0
  2060     0253  1303               	bcf	3,6	;RP1=0, select bank0
  2061     0254  00A1               	movwf	USART_Write_Text@str
  2062     0255  3080               	movlw	128
  2063     0256  00A2               	movwf	USART_Write_Text@str+1
  2064     0257  160A  158A  26C4  120A  118A  	fcall	_USART_Write_Text
  2065     025C                     l3613:
  2066                           
  2067                           ;main_teste_speed.c: 80:         USART_Write_Text(str_buffer);
  2068     025C  30C8               	movlw	(low (main@str_buffer| 0))& (0+255)
  2069     025D  1283               	bcf	3,5	;RP0=0, select bank0
  2070     025E  1303               	bcf	3,6	;RP1=0, select bank0
  2071     025F  00A1               	movwf	USART_Write_Text@str
  2072     0260  3000               	movlw	0
  2073     0261  00A2               	movwf	USART_Write_Text@str+1
  2074     0262  160A  158A  26C4  120A  118A  	fcall	_USART_Write_Text
  2075     0267                     l3615:
  2076                           
  2077                           ;main_teste_speed.c: 81:         USART_Write_Char('C');
  2078     0267  3043               	movlw	67
  2079     0268  120A  158A  2003  120A  118A  	fcall	_USART_Write_Char
  2080     026D                     l3617:
  2081                           
  2082                           ;main_teste_speed.c: 82:         USART_Write_Char('\r');
  2083     026D  300D               	movlw	13
  2084     026E  120A  158A  2003  120A  118A  	fcall	_USART_Write_Char
  2085     0273                     l3619:
  2086                           
  2087                           ;main_teste_speed.c: 83:         USART_Write_Text("----------------");
  2088     0273  3001               	movlw	(low ((STR_7-__stringbase)| (0+32768)))& (0+255)
  2089     0274  1283               	bcf	3,5	;RP0=0, select bank0
  2090     0275  1303               	bcf	3,6	;RP1=0, select bank0
  2091     0276  00A1               	movwf	USART_Write_Text@str
  2092     0277  3080               	movlw	128
  2093     0278  00A2               	movwf	USART_Write_Text@str+1
  2094     0279  160A  158A  26C4  120A  118A  	fcall	_USART_Write_Text
  2095     027E                     l3621:
  2096                           
  2097                           ;main_teste_speed.c: 84:         USART_Write_Char('\r');
  2098     027E  300D               	movlw	13
  2099     027F  120A  158A  2003  120A  118A  	fcall	_USART_Write_Char
  2100     0284                     l3623:
  2101                           
  2102                           ;main_teste_speed.c: 87:         ADC_value2 = ADC_Read2();
  2103     0284  160A  158A  2634  120A  118A  	fcall	_ADC_Read2
  2104     0289  1283               	bcf	3,5	;RP0=0, select bank0
  2105     028A  1303               	bcf	3,6	;RP1=0, select bank0
  2106     028B  0821               	movf	?_ADC_Read2+1,w
  2107     028C  1683               	bsf	3,5	;RP0=1, select bank1
  2108     028D  1303               	bcf	3,6	;RP1=0, select bank1
  2109     028E  00D7               	movwf	(main@ADC_value2+1)^(0+128)
  2110     028F  1283               	bcf	3,5	;RP0=0, select bank0
  2111     0290  1303               	bcf	3,6	;RP1=0, select bank0
  2112     0291  0820               	movf	?_ADC_Read2,w
  2113     0292  1683               	bsf	3,5	;RP0=1, select bank1
  2114     0293  1303               	bcf	3,6	;RP1=0, select bank1
  2115     0294  00D6               	movwf	main@ADC_value2^(0+128)
  2116     0295                     l3625:
  2117                           
  2118                           ;main_teste_speed.c: 88:         sprintf(str_buffer, "%4u", ADC_value2);
  2119     0295  30C8               	movlw	(low (main@str_buffer| 0))& (0+255)
  2120     0296  1283               	bcf	3,5	;RP0=0, select bank0
  2121     0297  1303               	bcf	3,6	;RP1=0, select bank0
  2122     0298  00DD               	movwf	sprintf@s
  2123     0299  306A               	movlw	(low ((STR_1-__stringbase)| (0+32768)))& (0+255)
  2124     029A  00DE               	movwf	sprintf@fmt
  2125     029B  1683               	bsf	3,5	;RP0=1, select bank1
  2126     029C  1303               	bcf	3,6	;RP1=0, select bank1
  2127     029D  0857               	movf	(main@ADC_value2+1)^(0+128),w
  2128     029E  1283               	bcf	3,5	;RP0=0, select bank0
  2129     029F  1303               	bcf	3,6	;RP1=0, select bank0
  2130     02A0  00E0               	movwf	?_sprintf+3
  2131     02A1  1683               	bsf	3,5	;RP0=1, select bank1
  2132     02A2  1303               	bcf	3,6	;RP1=0, select bank1
  2133     02A3  0856               	movf	main@ADC_value2^(0+128),w
  2134     02A4  1283               	bcf	3,5	;RP0=0, select bank0
  2135     02A5  1303               	bcf	3,6	;RP1=0, select bank0
  2136     02A6  00DF               	movwf	?_sprintf+2
  2137     02A7  160A  118A  2091  120A  118A  	fcall	_sprintf
  2138     02AC                     l3627:
  2139                           
  2140                           ;main_teste_speed.c: 89:         USART_Write_Text("ADC2(AN0)=");
  2141     02AC  3028               	movlw	(low ((STR_9-__stringbase)| (0+32768)))& (0+255)
  2142     02AD  1283               	bcf	3,5	;RP0=0, select bank0
  2143     02AE  1303               	bcf	3,6	;RP1=0, select bank0
  2144     02AF  00A1               	movwf	USART_Write_Text@str
  2145     02B0  3080               	movlw	128
  2146     02B1  00A2               	movwf	USART_Write_Text@str+1
  2147     02B2  160A  158A  26C4  120A  118A  	fcall	_USART_Write_Text
  2148     02B7                     l3629:
  2149                           
  2150                           ;main_teste_speed.c: 90:         USART_Write_Text(str_buffer);
  2151     02B7  30C8               	movlw	(low (main@str_buffer| 0))& (0+255)
  2152     02B8  1283               	bcf	3,5	;RP0=0, select bank0
  2153     02B9  1303               	bcf	3,6	;RP1=0, select bank0
  2154     02BA  00A1               	movwf	USART_Write_Text@str
  2155     02BB  3000               	movlw	0
  2156     02BC  00A2               	movwf	USART_Write_Text@str+1
  2157     02BD  160A  158A  26C4  120A  118A  	fcall	_USART_Write_Text
  2158     02C2                     l3631:
  2159                           
  2160                           ;main_teste_speed.c: 91:         USART_Write_Char('\r');
  2161     02C2  300D               	movlw	13
  2162     02C3  120A  158A  2003  120A  118A  	fcall	_USART_Write_Char
  2163     02C8                     l3633:
  2164                           
  2165                           ;main_teste_speed.c: 93:         voltage_mV2 = ((uint32_t)ADC_value2 * 5000) / 1023;
  2166     02C8  3000               	movlw	0
  2167     02C9  1283               	bcf	3,5	;RP0=0, select bank0
  2168     02CA  1303               	bcf	3,6	;RP1=0, select bank0
  2169     02CB  00B0               	movwf	___lldiv@divisor+3
  2170     02CC  3000               	movlw	0
  2171     02CD  00AF               	movwf	___lldiv@divisor+2
  2172     02CE  3003               	movlw	3
  2173     02CF  00AE               	movwf	___lldiv@divisor+1
  2174     02D0  30FF               	movlw	255
  2175     02D1  00AD               	movwf	___lldiv@divisor
  2176     02D2  1683               	bsf	3,5	;RP0=1, select bank1
  2177     02D3  1303               	bcf	3,6	;RP1=0, select bank1
  2178     02D4  0856               	movf	main@ADC_value2^(0+128),w
  2179     02D5  1283               	bcf	3,5	;RP0=0, select bank0
  2180     02D6  1303               	bcf	3,6	;RP1=0, select bank0
  2181     02D7  00A0               	movwf	___lmul@multiplier
  2182     02D8  1683               	bsf	3,5	;RP0=1, select bank1
  2183     02D9  1303               	bcf	3,6	;RP1=0, select bank1
  2184     02DA  0857               	movf	(main@ADC_value2+1)^(0+128),w
  2185     02DB  1283               	bcf	3,5	;RP0=0, select bank0
  2186     02DC  1303               	bcf	3,6	;RP1=0, select bank0
  2187     02DD  00A1               	movwf	___lmul@multiplier+1
  2188     02DE  01A2               	clrf	___lmul@multiplier+2
  2189     02DF  01A3               	clrf	___lmul@multiplier+3
  2190     02E0  3000               	movlw	0
  2191     02E1  00A7               	movwf	___lmul@multiplicand+3
  2192     02E2  3000               	movlw	0
  2193     02E3  00A6               	movwf	___lmul@multiplicand+2
  2194     02E4  3013               	movlw	19
  2195     02E5  00A5               	movwf	___lmul@multiplicand+1
  2196     02E6  3088               	movlw	136
  2197     02E7  00A4               	movwf	___lmul@multiplicand
  2198     02E8  160A  158A  27B8  120A  118A  	fcall	___lmul
  2199     02ED  1283               	bcf	3,5	;RP0=0, select bank0
  2200     02EE  1303               	bcf	3,6	;RP1=0, select bank0
  2201     02EF  0823               	movf	?___lmul+3,w
  2202     02F0  00B4               	movwf	___lldiv@dividend+3
  2203     02F1  0822               	movf	?___lmul+2,w
  2204     02F2  00B3               	movwf	___lldiv@dividend+2
  2205     02F3  0821               	movf	?___lmul+1,w
  2206     02F4  00B2               	movwf	___lldiv@dividend+1
  2207     02F5  0820               	movf	?___lmul,w
  2208     02F6  00B1               	movwf	___lldiv@dividend
  2209     02F7  160A  118A  221C  120A  118A  	fcall	___lldiv
  2210     02FC  1283               	bcf	3,5	;RP0=0, select bank0
  2211     02FD  1303               	bcf	3,6	;RP1=0, select bank0
  2212     02FE  082E               	movf	?___lldiv+1,w
  2213     02FF  1683               	bsf	3,5	;RP0=1, select bank1
  2214     0300  1303               	bcf	3,6	;RP1=0, select bank1
  2215     0301  00DD               	movwf	(main@voltage_mV2+1)^(0+128)
  2216     0302  1283               	bcf	3,5	;RP0=0, select bank0
  2217     0303  1303               	bcf	3,6	;RP1=0, select bank0
  2218     0304  082D               	movf	?___lldiv,w
  2219     0305  1683               	bsf	3,5	;RP0=1, select bank1
  2220     0306  1303               	bcf	3,6	;RP1=0, select bank1
  2221     0307  00DC               	movwf	main@voltage_mV2^(0+128)
  2222     0308                     l3635:
  2223                           
  2224                           ;main_teste_speed.c: 94:         pot_percent = ((voltage_mV2/1000) * 100) / 5;
  2225     0308  30E8               	movlw	232
  2226     0309  1283               	bcf	3,5	;RP0=0, select bank0
  2227     030A  1303               	bcf	3,6	;RP1=0, select bank0
  2228     030B  00A6               	movwf	___awdiv@divisor
  2229     030C  3003               	movlw	3
  2230     030D  00A7               	movwf	___awdiv@divisor+1
  2231     030E  1683               	bsf	3,5	;RP0=1, select bank1
  2232     030F  1303               	bcf	3,6	;RP1=0, select bank1
  2233     0310  085D               	movf	(main@voltage_mV2+1)^(0+128),w
  2234     0311  1283               	bcf	3,5	;RP0=0, select bank0
  2235     0312  1303               	bcf	3,6	;RP1=0, select bank0
  2236     0313  00A9               	movwf	___awdiv@dividend+1
  2237     0314  1683               	bsf	3,5	;RP0=1, select bank1
  2238     0315  1303               	bcf	3,6	;RP1=0, select bank1
  2239     0316  085C               	movf	main@voltage_mV2^(0+128),w
  2240     0317  1283               	bcf	3,5	;RP0=0, select bank0
  2241     0318  1303               	bcf	3,6	;RP1=0, select bank0
  2242     0319  00A8               	movwf	___awdiv@dividend
  2243     031A  160A  118A  21B7  120A  118A  	fcall	___awdiv
  2244     031F  1283               	bcf	3,5	;RP0=0, select bank0
  2245     0320  1303               	bcf	3,6	;RP1=0, select bank0
  2246     0321  0827               	movf	?___awdiv+1,w
  2247     0322  00AF               	movwf	___wmul@multiplier+1
  2248     0323  0826               	movf	?___awdiv,w
  2249     0324  00AE               	movwf	___wmul@multiplier
  2250     0325  3064               	movlw	100
  2251     0326  00B0               	movwf	___wmul@multiplicand
  2252     0327  3000               	movlw	0
  2253     0328  00B1               	movwf	___wmul@multiplicand+1
  2254     0329  160A  158A  269D  120A  118A  	fcall	___wmul
  2255     032E  1283               	bcf	3,5	;RP0=0, select bank0
  2256     032F  1303               	bcf	3,6	;RP1=0, select bank0
  2257     0330  082F               	movf	?___wmul+1,w
  2258     0331  1683               	bsf	3,5	;RP0=1, select bank1
  2259     0332  1303               	bcf	3,6	;RP1=0, select bank1
  2260     0333  00BF               	movwf	(_main$1210+1)^(0+128)
  2261     0334  1283               	bcf	3,5	;RP0=0, select bank0
  2262     0335  1303               	bcf	3,6	;RP1=0, select bank0
  2263     0336  082E               	movf	?___wmul,w
  2264     0337  1683               	bsf	3,5	;RP0=1, select bank1
  2265     0338  1303               	bcf	3,6	;RP1=0, select bank1
  2266     0339  00BE               	movwf	_main$1210^(0+128)
  2267     033A                     l3637:
  2268                           
  2269                           ;main_teste_speed.c: 94:         pot_percent = ((voltage_mV2/1000) * 100) / 5;
  2270     033A  3005               	movlw	5
  2271     033B  1283               	bcf	3,5	;RP0=0, select bank0
  2272     033C  1303               	bcf	3,6	;RP1=0, select bank0
  2273     033D  00A6               	movwf	___awdiv@divisor
  2274     033E  3000               	movlw	0
  2275     033F  00A7               	movwf	___awdiv@divisor+1
  2276     0340  1683               	bsf	3,5	;RP0=1, select bank1
  2277     0341  1303               	bcf	3,6	;RP1=0, select bank1
  2278     0342  083F               	movf	(_main$1210+1)^(0+128),w
  2279     0343  1283               	bcf	3,5	;RP0=0, select bank0
  2280     0344  1303               	bcf	3,6	;RP1=0, select bank0
  2281     0345  00A9               	movwf	___awdiv@dividend+1
  2282     0346  1683               	bsf	3,5	;RP0=1, select bank1
  2283     0347  1303               	bcf	3,6	;RP1=0, select bank1
  2284     0348  083E               	movf	_main$1210^(0+128),w
  2285     0349  1283               	bcf	3,5	;RP0=0, select bank0
  2286     034A  1303               	bcf	3,6	;RP1=0, select bank0
  2287     034B  00A8               	movwf	___awdiv@dividend
  2288     034C  160A  118A  21B7  120A  118A  	fcall	___awdiv
  2289     0351  1283               	bcf	3,5	;RP0=0, select bank0
  2290     0352  1303               	bcf	3,6	;RP1=0, select bank0
  2291     0353  0827               	movf	?___awdiv+1,w
  2292     0354  1683               	bsf	3,5	;RP0=1, select bank1
  2293     0355  1303               	bcf	3,6	;RP1=0, select bank1
  2294     0356  00BD               	movwf	(main@pot_percent+1)^(0+128)
  2295     0357  1283               	bcf	3,5	;RP0=0, select bank0
  2296     0358  1303               	bcf	3,6	;RP1=0, select bank0
  2297     0359  0826               	movf	?___awdiv,w
  2298     035A  1683               	bsf	3,5	;RP0=1, select bank1
  2299     035B  1303               	bcf	3,6	;RP1=0, select bank1
  2300     035C  00BC               	movwf	main@pot_percent^(0+128)
  2301     035D                     l3639:
  2302                           
  2303                           ;main_teste_speed.c: 96:         sprintf(str_buffer, "%d.%02d", voltage_mV2 / 1000, (vol
      +                          tage_mV2 % 1000) / 10);
  2304     035D  30C8               	movlw	(low (main@str_buffer| 0))& (0+255)
  2305     035E  1283               	bcf	3,5	;RP0=0, select bank0
  2306     035F  1303               	bcf	3,6	;RP1=0, select bank0
  2307     0360  00DD               	movwf	sprintf@s
  2308     0361  3040               	movlw	(low (((STR_3+2)-__stringbase)| (0+32768)))& (0+255)
  2309     0362  00DE               	movwf	sprintf@fmt
  2310     0363  30E8               	movlw	232
  2311     0364  00A6               	movwf	___awdiv@divisor
  2312     0365  3003               	movlw	3
  2313     0366  00A7               	movwf	___awdiv@divisor+1
  2314     0367  1683               	bsf	3,5	;RP0=1, select bank1
  2315     0368  1303               	bcf	3,6	;RP1=0, select bank1
  2316     0369  085D               	movf	(main@voltage_mV2+1)^(0+128),w
  2317     036A  1283               	bcf	3,5	;RP0=0, select bank0
  2318     036B  1303               	bcf	3,6	;RP1=0, select bank0
  2319     036C  00A9               	movwf	___awdiv@dividend+1
  2320     036D  1683               	bsf	3,5	;RP0=1, select bank1
  2321     036E  1303               	bcf	3,6	;RP1=0, select bank1
  2322     036F  085C               	movf	main@voltage_mV2^(0+128),w
  2323     0370  1283               	bcf	3,5	;RP0=0, select bank0
  2324     0371  1303               	bcf	3,6	;RP1=0, select bank0
  2325     0372  00A8               	movwf	___awdiv@dividend
  2326     0373  160A  118A  21B7  120A  118A  	fcall	___awdiv
  2327     0378  1283               	bcf	3,5	;RP0=0, select bank0
  2328     0379  1303               	bcf	3,6	;RP1=0, select bank0
  2329     037A  0827               	movf	?___awdiv+1,w
  2330     037B  00E0               	movwf	?_sprintf+3
  2331     037C  0826               	movf	?___awdiv,w
  2332     037D  00DF               	movwf	?_sprintf+2
  2333     037E  300A               	movlw	10
  2334     037F  00A6               	movwf	___awdiv@divisor
  2335     0380  3000               	movlw	0
  2336     0381  00A7               	movwf	___awdiv@divisor+1
  2337     0382  1683               	bsf	3,5	;RP0=1, select bank1
  2338     0383  1303               	bcf	3,6	;RP1=0, select bank1
  2339     0384  085D               	movf	(main@voltage_mV2+1)^(0+128),w
  2340     0385  1283               	bcf	3,5	;RP0=0, select bank0
  2341     0386  1303               	bcf	3,6	;RP1=0, select bank0
  2342     0387  00A3               	movwf	___awmod@dividend+1
  2343     0388  1683               	bsf	3,5	;RP0=1, select bank1
  2344     0389  1303               	bcf	3,6	;RP1=0, select bank1
  2345     038A  085C               	movf	main@voltage_mV2^(0+128),w
  2346     038B  1283               	bcf	3,5	;RP0=0, select bank0
  2347     038C  1303               	bcf	3,6	;RP1=0, select bank0
  2348     038D  00A2               	movwf	___awmod@dividend
  2349     038E  30E8               	movlw	232
  2350     038F  00A0               	movwf	___awmod@divisor
  2351     0390  3003               	movlw	3
  2352     0391  00A1               	movwf	___awmod@divisor+1
  2353     0392  120A  118A  27A2  120A  118A  	fcall	___awmod
  2354     0397  1283               	bcf	3,5	;RP0=0, select bank0
  2355     0398  1303               	bcf	3,6	;RP1=0, select bank0
  2356     0399  0821               	movf	?___awmod+1,w
  2357     039A  00A9               	movwf	___awdiv@dividend+1
  2358     039B  0820               	movf	?___awmod,w
  2359     039C  00A8               	movwf	___awdiv@dividend
  2360     039D  160A  118A  21B7  120A  118A  	fcall	___awdiv
  2361     03A2  1283               	bcf	3,5	;RP0=0, select bank0
  2362     03A3  1303               	bcf	3,6	;RP1=0, select bank0
  2363     03A4  0827               	movf	?___awdiv+1,w
  2364     03A5  00E2               	movwf	?_sprintf+5
  2365     03A6  0826               	movf	?___awdiv,w
  2366     03A7  00E1               	movwf	?_sprintf+4
  2367     03A8  160A  118A  2091  120A  118A  	fcall	_sprintf
  2368     03AD                     l3641:
  2369                           
  2370                           ;main_teste_speed.c: 97:         USART_Write_Text("V=");
  2371     03AD  3076               	movlw	(low ((STR_4-__stringbase)| (0+32768)))& (0+255)
  2372     03AE  1283               	bcf	3,5	;RP0=0, select bank0
  2373     03AF  1303               	bcf	3,6	;RP1=0, select bank0
  2374     03B0  00A1               	movwf	USART_Write_Text@str
  2375     03B1  3080               	movlw	128
  2376     03B2  00A2               	movwf	USART_Write_Text@str+1
  2377     03B3  160A  158A  26C4  120A  118A  	fcall	_USART_Write_Text
  2378     03B8                     l3643:
  2379                           
  2380                           ;main_teste_speed.c: 98:         USART_Write_Text(str_buffer);
  2381     03B8  30C8               	movlw	(low (main@str_buffer| 0))& (0+255)
  2382     03B9  1283               	bcf	3,5	;RP0=0, select bank0
  2383     03BA  1303               	bcf	3,6	;RP1=0, select bank0
  2384     03BB  00A1               	movwf	USART_Write_Text@str
  2385     03BC  3000               	movlw	0
  2386     03BD  00A2               	movwf	USART_Write_Text@str+1
  2387     03BE  160A  158A  26C4  120A  118A  	fcall	_USART_Write_Text
  2388     03C3                     l3645:
  2389                           
  2390                           ;main_teste_speed.c: 99:         USART_Write_Char(' V');
  2391     03C3  3056               	movlw	86
  2392     03C4  120A  158A  2003  120A  118A  	fcall	_USART_Write_Char
  2393     03C9                     l3647:
  2394                           
  2395                           ;main_teste_speed.c: 100:         USART_Write_Char('\r');
  2396     03C9  300D               	movlw	13
  2397     03CA  120A  158A  2003  120A  118A  	fcall	_USART_Write_Char
  2398     03CF                     l3649:
  2399                           
  2400                           ;main_teste_speed.c: 103:         sprintf(str_buffer, "%d", pot_percent);
  2401     03CF  30C8               	movlw	(low (main@str_buffer| 0))& (0+255)
  2402     03D0  1283               	bcf	3,5	;RP0=0, select bank0
  2403     03D1  1303               	bcf	3,6	;RP1=0, select bank0
  2404     03D2  00DD               	movwf	sprintf@s
  2405     03D3  3063               	movlw	(low (((STR_5+2)-__stringbase)| (0+32768)))& (0+255)
  2406     03D4  00DE               	movwf	sprintf@fmt
  2407     03D5  1683               	bsf	3,5	;RP0=1, select bank1
  2408     03D6  1303               	bcf	3,6	;RP1=0, select bank1
  2409     03D7  083D               	movf	(main@pot_percent+1)^(0+128),w
  2410     03D8  1283               	bcf	3,5	;RP0=0, select bank0
  2411     03D9  1303               	bcf	3,6	;RP1=0, select bank0
  2412     03DA  00E0               	movwf	?_sprintf+3
  2413     03DB  1683               	bsf	3,5	;RP0=1, select bank1
  2414     03DC  1303               	bcf	3,6	;RP1=0, select bank1
  2415     03DD  083C               	movf	main@pot_percent^(0+128),w
  2416     03DE  1283               	bcf	3,5	;RP0=0, select bank0
  2417     03DF  1303               	bcf	3,6	;RP1=0, select bank0
  2418     03E0  00DF               	movwf	?_sprintf+2
  2419     03E1  160A  118A  2091  120A  118A  	fcall	_sprintf
  2420     03E6                     l3651:
  2421                           
  2422                           ;main_teste_speed.c: 104:         USART_Write_Text("pot=");
  2423     03E6  305C               	movlw	(low ((STR_13-__stringbase)| (0+32768)))& (0+255)
  2424     03E7  1283               	bcf	3,5	;RP0=0, select bank0
  2425     03E8  1303               	bcf	3,6	;RP1=0, select bank0
  2426     03E9  00A1               	movwf	USART_Write_Text@str
  2427     03EA  3080               	movlw	128
  2428     03EB  00A2               	movwf	USART_Write_Text@str+1
  2429     03EC  160A  158A  26C4  120A  118A  	fcall	_USART_Write_Text
  2430     03F1                     l3653:
  2431                           
  2432                           ;main_teste_speed.c: 105:         USART_Write_Text(str_buffer);
  2433     03F1  30C8               	movlw	(low (main@str_buffer| 0))& (0+255)
  2434     03F2  1283               	bcf	3,5	;RP0=0, select bank0
  2435     03F3  1303               	bcf	3,6	;RP1=0, select bank0
  2436     03F4  00A1               	movwf	USART_Write_Text@str
  2437     03F5  3000               	movlw	0
  2438     03F6  00A2               	movwf	USART_Write_Text@str+1
  2439     03F7  160A  158A  26C4  120A  118A  	fcall	_USART_Write_Text
  2440     03FC                     l3655:
  2441                           
  2442                           ;main_teste_speed.c: 106:         USART_Write_Char(' %');
  2443     03FC  3025               	movlw	37
  2444     03FD  120A  158A  2003  120A  118A  	fcall	_USART_Write_Char
  2445     0402                     l3657:
  2446                           
  2447                           ;main_teste_speed.c: 107:         USART_Write_Char('\r');
  2448     0402  300D               	movlw	13
  2449     0403  120A  158A  2003  120A  118A  	fcall	_USART_Write_Char
  2450     0408                     l3659:
  2451                           
  2452                           ;main_teste_speed.c: 109:         USART_Write_Text("----------------");
  2453     0408  3001               	movlw	(low ((STR_7-__stringbase)| (0+32768)))& (0+255)
  2454     0409  1283               	bcf	3,5	;RP0=0, select bank0
  2455     040A  1303               	bcf	3,6	;RP1=0, select bank0
  2456     040B  00A1               	movwf	USART_Write_Text@str
  2457     040C  3080               	movlw	128
  2458     040D  00A2               	movwf	USART_Write_Text@str+1
  2459     040E  160A  158A  26C4  120A  118A  	fcall	_USART_Write_Text
  2460     0413                     l3661:
  2461                           
  2462                           ;main_teste_speed.c: 110:         USART_Write_Char('\r');
  2463     0413  300D               	movlw	13
  2464     0414  120A  158A  2003  120A  118A  	fcall	_USART_Write_Char
  2465     0419                     l3663:
  2466                           
  2467                           ;main_teste_speed.c: 113:         if (newMeasure) {
  2468     0419  087D               	movf	_newMeasure,w	;volatile
  2469     041A  1903               	btfsc	3,2
  2470     041B  2C1D               	goto	u5111
  2471     041C  2C1E               	goto	u5110
  2472     041D                     u5111:
  2473     041D  2864               	goto	l3559
  2474     041E                     u5110:
  2475     041E                     l3665:
  2476                           
  2477                           ;main_teste_speed.c: 114:             newMeasure = 0;
  2478     041E  01FD               	clrf	_newMeasure	;volatile
  2479     041F                     l3667:
  2480                           
  2481                           ;main_teste_speed.c: 116:             if (period > 0) {
  2482     041F  1683               	bsf	3,5	;RP0=1, select bank1
  2483     0420  1303               	bcf	3,6	;RP1=0, select bank1
  2484     0421  0864               	movf	_period^(0+128),w	;volatile
  2485     0422  0465               	iorwf	(_period+1)^(0+128),w	;volatile
  2486     0423  1903               	btfsc	3,2
  2487     0424  2C26               	goto	u5121
  2488     0425  2C27               	goto	u5120
  2489     0426                     u5121:
  2490     0426  2864               	goto	l3559
  2491     0427                     u5120:
  2492     0427                     l3669:
  2493                           
  2494                           ;main_teste_speed.c: 118:                 uint32_t freq = 1000000 / period ;
  2495     0427  0864               	movf	_period^(0+128),w	;volatile
  2496     0428  1283               	bcf	3,5	;RP0=0, select bank0
  2497     0429  1303               	bcf	3,6	;RP1=0, select bank0
  2498     042A  00A0               	movwf	___aldiv@divisor
  2499     042B  1683               	bsf	3,5	;RP0=1, select bank1
  2500     042C  1303               	bcf	3,6	;RP1=0, select bank1
  2501     042D  0865               	movf	(_period+1)^(0+128),w	;volatile
  2502     042E  1283               	bcf	3,5	;RP0=0, select bank0
  2503     042F  1303               	bcf	3,6	;RP1=0, select bank0
  2504     0430  00A1               	movwf	___aldiv@divisor+1
  2505     0431  01A2               	clrf	___aldiv@divisor+2
  2506     0432  01A3               	clrf	___aldiv@divisor+3
  2507     0433  3000               	movlw	0
  2508     0434  00A7               	movwf	___aldiv@dividend+3
  2509     0435  300F               	movlw	15
  2510     0436  00A6               	movwf	___aldiv@dividend+2
  2511     0437  3042               	movlw	66
  2512     0438  00A5               	movwf	___aldiv@dividend+1
  2513     0439  3040               	movlw	64
  2514     043A  00A4               	movwf	___aldiv@dividend
  2515     043B  160A  118A  2485  120A  118A  	fcall	___aldiv
  2516     0440  1283               	bcf	3,5	;RP0=0, select bank0
  2517     0441  1303               	bcf	3,6	;RP1=0, select bank0
  2518     0442  0823               	movf	?___aldiv+3,w
  2519     0443  1683               	bsf	3,5	;RP0=1, select bank1
  2520     0444  1303               	bcf	3,6	;RP1=0, select bank1
  2521     0445  00D5               	movwf	(main@freq+3)^(0+128)
  2522     0446  1283               	bcf	3,5	;RP0=0, select bank0
  2523     0447  1303               	bcf	3,6	;RP1=0, select bank0
  2524     0448  0822               	movf	?___aldiv+2,w
  2525     0449  1683               	bsf	3,5	;RP0=1, select bank1
  2526     044A  1303               	bcf	3,6	;RP1=0, select bank1
  2527     044B  00D4               	movwf	(main@freq+2)^(0+128)
  2528     044C  1283               	bcf	3,5	;RP0=0, select bank0
  2529     044D  1303               	bcf	3,6	;RP1=0, select bank0
  2530     044E  0821               	movf	?___aldiv+1,w
  2531     044F  1683               	bsf	3,5	;RP0=1, select bank1
  2532     0450  1303               	bcf	3,6	;RP1=0, select bank1
  2533     0451  00D3               	movwf	(main@freq+1)^(0+128)
  2534     0452  1283               	bcf	3,5	;RP0=0, select bank0
  2535     0453  1303               	bcf	3,6	;RP1=0, select bank0
  2536     0454  0820               	movf	?___aldiv,w
  2537     0455  1683               	bsf	3,5	;RP0=1, select bank1
  2538     0456  1303               	bcf	3,6	;RP1=0, select bank1
  2539     0457  00D2               	movwf	main@freq^(0+128)
  2540     0458                     l3671:
  2541                           
  2542                           ;main_teste_speed.c: 119:                 sprintf(str_buffer, "%lu", freq);
  2543     0458  30C8               	movlw	(low (main@str_buffer| 0))& (0+255)
  2544     0459  1283               	bcf	3,5	;RP0=0, select bank0
  2545     045A  1303               	bcf	3,6	;RP1=0, select bank0
  2546     045B  00DD               	movwf	sprintf@s
  2547     045C  306E               	movlw	(low ((STR_15-__stringbase)| (0+32768)))& (0+255)
  2548     045D  00DE               	movwf	sprintf@fmt
  2549     045E  1683               	bsf	3,5	;RP0=1, select bank1
  2550     045F  1303               	bcf	3,6	;RP1=0, select bank1
  2551     0460  0855               	movf	(main@freq+3)^(0+128),w
  2552     0461  1283               	bcf	3,5	;RP0=0, select bank0
  2553     0462  1303               	bcf	3,6	;RP1=0, select bank0
  2554     0463  00E2               	movwf	?_sprintf+5
  2555     0464  1683               	bsf	3,5	;RP0=1, select bank1
  2556     0465  1303               	bcf	3,6	;RP1=0, select bank1
  2557     0466  0854               	movf	(main@freq+2)^(0+128),w
  2558     0467  1283               	bcf	3,5	;RP0=0, select bank0
  2559     0468  1303               	bcf	3,6	;RP1=0, select bank0
  2560     0469  00E1               	movwf	?_sprintf+4
  2561     046A  1683               	bsf	3,5	;RP0=1, select bank1
  2562     046B  1303               	bcf	3,6	;RP1=0, select bank1
  2563     046C  0853               	movf	(main@freq+1)^(0+128),w
  2564     046D  1283               	bcf	3,5	;RP0=0, select bank0
  2565     046E  1303               	bcf	3,6	;RP1=0, select bank0
  2566     046F  00E0               	movwf	?_sprintf+3
  2567     0470  1683               	bsf	3,5	;RP0=1, select bank1
  2568     0471  1303               	bcf	3,6	;RP1=0, select bank1
  2569     0472  0852               	movf	main@freq^(0+128),w
  2570     0473  1283               	bcf	3,5	;RP0=0, select bank0
  2571     0474  1303               	bcf	3,6	;RP1=0, select bank0
  2572     0475  00DF               	movwf	?_sprintf+2
  2573     0476  160A  118A  2091  120A  118A  	fcall	_sprintf
  2574     047B                     l3673:
  2575                           
  2576                           ;main_teste_speed.c: 120:                 USART_Write_Text("freq = ");
  2577     047B  3048               	movlw	(low ((STR_16-__stringbase)| (0+32768)))& (0+255)
  2578     047C  1283               	bcf	3,5	;RP0=0, select bank0
  2579     047D  1303               	bcf	3,6	;RP1=0, select bank0
  2580     047E  00A1               	movwf	USART_Write_Text@str
  2581     047F  3080               	movlw	128
  2582     0480  00A2               	movwf	USART_Write_Text@str+1
  2583     0481  160A  158A  26C4  120A  118A  	fcall	_USART_Write_Text
  2584     0486                     l3675:
  2585                           
  2586                           ;main_teste_speed.c: 121:                 USART_Write_Text(str_buffer);
  2587     0486  30C8               	movlw	(low (main@str_buffer| 0))& (0+255)
  2588     0487  1283               	bcf	3,5	;RP0=0, select bank0
  2589     0488  1303               	bcf	3,6	;RP1=0, select bank0
  2590     0489  00A1               	movwf	USART_Write_Text@str
  2591     048A  3000               	movlw	0
  2592     048B  00A2               	movwf	USART_Write_Text@str+1
  2593     048C  160A  158A  26C4  120A  118A  	fcall	_USART_Write_Text
  2594     0491                     l3677:
  2595                           
  2596                           ;main_teste_speed.c: 122:                 USART_Write_Text(" Hz");
  2597     0491  3072               	movlw	(low ((STR_17-__stringbase)| (0+32768)))& (0+255)
  2598     0492  1283               	bcf	3,5	;RP0=0, select bank0
  2599     0493  1303               	bcf	3,6	;RP1=0, select bank0
  2600     0494  00A1               	movwf	USART_Write_Text@str
  2601     0495  3080               	movlw	128
  2602     0496  00A2               	movwf	USART_Write_Text@str+1
  2603     0497  160A  158A  26C4  120A  118A  	fcall	_USART_Write_Text
  2604                           
  2605                           ;main_teste_speed.c: 123:                 USART_Write_Char('\r');
  2606     049C  300D               	movlw	13
  2607     049D  120A  158A  2003  120A  118A  	fcall	_USART_Write_Char
  2608     04A2                     l3679:
  2609                           
  2610                           ;main_teste_speed.c: 125:                 sprintf(str_buffer, "%u", period);
  2611     04A2  30C8               	movlw	(low (main@str_buffer| 0))& (0+255)
  2612     04A3  1283               	bcf	3,5	;RP0=0, select bank0
  2613     04A4  1303               	bcf	3,6	;RP1=0, select bank0
  2614     04A5  00DD               	movwf	sprintf@s
  2615     04A6  3079               	movlw	(low ((STR_18-__stringbase)| (0+32768)))& (0+255)
  2616     04A7  00DE               	movwf	sprintf@fmt
  2617     04A8  1683               	bsf	3,5	;RP0=1, select bank1
  2618     04A9  1303               	bcf	3,6	;RP1=0, select bank1
  2619     04AA  0865               	movf	(_period+1)^(0+128),w	;volatile
  2620     04AB  1283               	bcf	3,5	;RP0=0, select bank0
  2621     04AC  1303               	bcf	3,6	;RP1=0, select bank0
  2622     04AD  00E0               	movwf	?_sprintf+3
  2623     04AE  1683               	bsf	3,5	;RP0=1, select bank1
  2624     04AF  1303               	bcf	3,6	;RP1=0, select bank1
  2625     04B0  0864               	movf	_period^(0+128),w	;volatile
  2626     04B1  1283               	bcf	3,5	;RP0=0, select bank0
  2627     04B2  1303               	bcf	3,6	;RP1=0, select bank0
  2628     04B3  00DF               	movwf	?_sprintf+2
  2629     04B4  160A  118A  2091  120A  118A  	fcall	_sprintf
  2630     04B9                     l3681:
  2631                           
  2632                           ;main_teste_speed.c: 126:                 USART_Write_Text("periode = ");
  2633     04B9  3012               	movlw	(low ((STR_19-__stringbase)| (0+32768)))& (0+255)
  2634     04BA  1283               	bcf	3,5	;RP0=0, select bank0
  2635     04BB  1303               	bcf	3,6	;RP1=0, select bank0
  2636     04BC  00A1               	movwf	USART_Write_Text@str
  2637     04BD  3080               	movlw	128
  2638     04BE  00A2               	movwf	USART_Write_Text@str+1
  2639     04BF  160A  158A  26C4  120A  118A  	fcall	_USART_Write_Text
  2640     04C4                     l3683:
  2641                           
  2642                           ;main_teste_speed.c: 127:                 USART_Write_Text(str_buffer);
  2643     04C4  30C8               	movlw	(low (main@str_buffer| 0))& (0+255)
  2644     04C5  1283               	bcf	3,5	;RP0=0, select bank0
  2645     04C6  1303               	bcf	3,6	;RP1=0, select bank0
  2646     04C7  00A1               	movwf	USART_Write_Text@str
  2647     04C8  3000               	movlw	0
  2648     04C9  00A2               	movwf	USART_Write_Text@str+1
  2649     04CA  160A  158A  26C4  120A  118A  	fcall	_USART_Write_Text
  2650     04CF                     l3685:
  2651                           
  2652                           ;main_teste_speed.c: 128:                 USART_Write_Text(" us");
  2653     04CF  3066               	movlw	(low ((STR_20-__stringbase)| (0+32768)))& (0+255)
  2654     04D0  1283               	bcf	3,5	;RP0=0, select bank0
  2655     04D1  1303               	bcf	3,6	;RP1=0, select bank0
  2656     04D2  00A1               	movwf	USART_Write_Text@str
  2657     04D3  3080               	movlw	128
  2658     04D4  00A2               	movwf	USART_Write_Text@str+1
  2659     04D5  160A  158A  26C4  120A  118A  	fcall	_USART_Write_Text
  2660                           
  2661                           ;main_teste_speed.c: 129:                 USART_Write_Char('\r');
  2662     04DA  300D               	movlw	13
  2663     04DB  120A  158A  2003  120A  118A  	fcall	_USART_Write_Char
  2664                           
  2665                           ;main_teste_speed.c: 131:                 uint32_t freqRot = freq/48 ;
  2666     04E0  3000               	movlw	0
  2667     04E1  1283               	bcf	3,5	;RP0=0, select bank0
  2668     04E2  1303               	bcf	3,6	;RP1=0, select bank0
  2669     04E3  00B0               	movwf	___lldiv@divisor+3
  2670     04E4  3000               	movlw	0
  2671     04E5  00AF               	movwf	___lldiv@divisor+2
  2672     04E6  3000               	movlw	0
  2673     04E7  00AE               	movwf	___lldiv@divisor+1
  2674     04E8  3030               	movlw	48
  2675     04E9  00AD               	movwf	___lldiv@divisor
  2676     04EA  1683               	bsf	3,5	;RP0=1, select bank1
  2677     04EB  1303               	bcf	3,6	;RP1=0, select bank1
  2678     04EC  0855               	movf	(main@freq+3)^(0+128),w
  2679     04ED  1283               	bcf	3,5	;RP0=0, select bank0
  2680     04EE  1303               	bcf	3,6	;RP1=0, select bank0
  2681     04EF  00B4               	movwf	___lldiv@dividend+3
  2682     04F0  1683               	bsf	3,5	;RP0=1, select bank1
  2683     04F1  1303               	bcf	3,6	;RP1=0, select bank1
  2684     04F2  0854               	movf	(main@freq+2)^(0+128),w
  2685     04F3  1283               	bcf	3,5	;RP0=0, select bank0
  2686     04F4  1303               	bcf	3,6	;RP1=0, select bank0
  2687     04F5  00B3               	movwf	___lldiv@dividend+2
  2688     04F6  1683               	bsf	3,5	;RP0=1, select bank1
  2689     04F7  1303               	bcf	3,6	;RP1=0, select bank1
  2690     04F8  0853               	movf	(main@freq+1)^(0+128),w
  2691     04F9  1283               	bcf	3,5	;RP0=0, select bank0
  2692     04FA  1303               	bcf	3,6	;RP1=0, select bank0
  2693     04FB  00B2               	movwf	___lldiv@dividend+1
  2694     04FC  1683               	bsf	3,5	;RP0=1, select bank1
  2695     04FD  1303               	bcf	3,6	;RP1=0, select bank1
  2696     04FE  0852               	movf	main@freq^(0+128),w
  2697     04FF  1283               	bcf	3,5	;RP0=0, select bank0
  2698     0500  1303               	bcf	3,6	;RP1=0, select bank0
  2699     0501  00B1               	movwf	___lldiv@dividend
  2700     0502  160A  118A  221C  120A  118A  	fcall	___lldiv
  2701     0507  1283               	bcf	3,5	;RP0=0, select bank0
  2702     0508  1303               	bcf	3,6	;RP1=0, select bank0
  2703     0509  0830               	movf	?___lldiv+3,w
  2704     050A  1683               	bsf	3,5	;RP0=1, select bank1
  2705     050B  1303               	bcf	3,6	;RP1=0, select bank1
  2706     050C  00B7               	movwf	(main@freqRot+3)^(0+128)
  2707     050D  1283               	bcf	3,5	;RP0=0, select bank0
  2708     050E  1303               	bcf	3,6	;RP1=0, select bank0
  2709     050F  082F               	movf	?___lldiv+2,w
  2710     0510  1683               	bsf	3,5	;RP0=1, select bank1
  2711     0511  1303               	bcf	3,6	;RP1=0, select bank1
  2712     0512  00B6               	movwf	(main@freqRot+2)^(0+128)
  2713     0513  1283               	bcf	3,5	;RP0=0, select bank0
  2714     0514  1303               	bcf	3,6	;RP1=0, select bank0
  2715     0515  082E               	movf	?___lldiv+1,w
  2716     0516  1683               	bsf	3,5	;RP0=1, select bank1
  2717     0517  1303               	bcf	3,6	;RP1=0, select bank1
  2718     0518  00B5               	movwf	(main@freqRot+1)^(0+128)
  2719     0519  1283               	bcf	3,5	;RP0=0, select bank0
  2720     051A  1303               	bcf	3,6	;RP1=0, select bank0
  2721     051B  082D               	movf	?___lldiv,w
  2722     051C  1683               	bsf	3,5	;RP0=1, select bank1
  2723     051D  1303               	bcf	3,6	;RP1=0, select bank1
  2724     051E  00B4               	movwf	main@freqRot^(0+128)
  2725     051F                     l3687:
  2726                           
  2727                           ;main_teste_speed.c: 133:                 uint32_t vitess = freqRot*6.785840138;
  2728     051F  0837               	movf	(main@freqRot+3)^(0+128),w
  2729     0520  1283               	bcf	3,5	;RP0=0, select bank0
  2730     0521  1303               	bcf	3,6	;RP1=0, select bank0
  2731     0522  00A3               	movwf	___xxtofl@val+3
  2732     0523  1683               	bsf	3,5	;RP0=1, select bank1
  2733     0524  1303               	bcf	3,6	;RP1=0, select bank1
  2734     0525  0836               	movf	(main@freqRot+2)^(0+128),w
  2735     0526  1283               	bcf	3,5	;RP0=0, select bank0
  2736     0527  1303               	bcf	3,6	;RP1=0, select bank0
  2737     0528  00A2               	movwf	___xxtofl@val+2
  2738     0529  1683               	bsf	3,5	;RP0=1, select bank1
  2739     052A  1303               	bcf	3,6	;RP1=0, select bank1
  2740     052B  0835               	movf	(main@freqRot+1)^(0+128),w
  2741     052C  1283               	bcf	3,5	;RP0=0, select bank0
  2742     052D  1303               	bcf	3,6	;RP1=0, select bank0
  2743     052E  00A1               	movwf	___xxtofl@val+1
  2744     052F  1683               	bsf	3,5	;RP0=1, select bank1
  2745     0530  1303               	bcf	3,6	;RP1=0, select bank1
  2746     0531  0834               	movf	main@freqRot^(0+128),w
  2747     0532  1283               	bcf	3,5	;RP0=0, select bank0
  2748     0533  1303               	bcf	3,6	;RP1=0, select bank0
  2749     0534  00A0               	movwf	___xxtofl@val
  2750     0535  3000               	movlw	0
  2751     0536  160A  118A  266E  120A  118A  	fcall	___xxtofl
  2752     053B  1283               	bcf	3,5	;RP0=0, select bank0
  2753     053C  1303               	bcf	3,6	;RP1=0, select bank0
  2754     053D  0823               	movf	?___xxtofl+3,w
  2755     053E  00B5               	movwf	___flmul@a+3
  2756     053F  0822               	movf	?___xxtofl+2,w
  2757     0540  00B4               	movwf	___flmul@a+2
  2758     0541  0821               	movf	?___xxtofl+1,w
  2759     0542  00B3               	movwf	___flmul@a+1
  2760     0543  0820               	movf	?___xxtofl,w
  2761     0544  00B2               	movwf	___flmul@a
  2762     0545  3040               	movlw	64
  2763     0546  00B1               	movwf	___flmul@b+3
  2764     0547  30D9               	movlw	217
  2765     0548  00B0               	movwf	___flmul@b+2
  2766     0549  3025               	movlw	37
  2767     054A  00AF               	movwf	___flmul@b+1
  2768     054B  309A               	movlw	154
  2769     054C  00AE               	movwf	___flmul@b
  2770     054D  120A  158A  24BE  120A  118A  	fcall	___flmul
  2771     0552  1283               	bcf	3,5	;RP0=0, select bank0
  2772     0553  1303               	bcf	3,6	;RP1=0, select bank0
  2773     0554  0831               	movf	?___flmul+3,w
  2774     0555  00CB               	movwf	___fltol@f1+3
  2775     0556  0830               	movf	?___flmul+2,w
  2776     0557  00CA               	movwf	___fltol@f1+2
  2777     0558  082F               	movf	?___flmul+1,w
  2778     0559  00C9               	movwf	___fltol@f1+1
  2779     055A  082E               	movf	?___flmul,w
  2780     055B  00C8               	movwf	___fltol@f1
  2781     055C  160A  118A  22F5  120A  118A  	fcall	___fltol
  2782     0561  1283               	bcf	3,5	;RP0=0, select bank0
  2783     0562  1303               	bcf	3,6	;RP1=0, select bank0
  2784     0563  084B               	movf	?___fltol+3,w
  2785     0564  1683               	bsf	3,5	;RP0=1, select bank1
  2786     0565  1303               	bcf	3,6	;RP1=0, select bank1
  2787     0566  00BB               	movwf	(main@vitess+3)^(0+128)
  2788     0567  1283               	bcf	3,5	;RP0=0, select bank0
  2789     0568  1303               	bcf	3,6	;RP1=0, select bank0
  2790     0569  084A               	movf	?___fltol+2,w
  2791     056A  1683               	bsf	3,5	;RP0=1, select bank1
  2792     056B  1303               	bcf	3,6	;RP1=0, select bank1
  2793     056C  00BA               	movwf	(main@vitess+2)^(0+128)
  2794     056D  1283               	bcf	3,5	;RP0=0, select bank0
  2795     056E  1303               	bcf	3,6	;RP1=0, select bank0
  2796     056F  0849               	movf	?___fltol+1,w
  2797     0570  1683               	bsf	3,5	;RP0=1, select bank1
  2798     0571  1303               	bcf	3,6	;RP1=0, select bank1
  2799     0572  00B9               	movwf	(main@vitess+1)^(0+128)
  2800     0573  1283               	bcf	3,5	;RP0=0, select bank0
  2801     0574  1303               	bcf	3,6	;RP1=0, select bank0
  2802     0575  0848               	movf	?___fltol,w
  2803     0576  1683               	bsf	3,5	;RP0=1, select bank1
  2804     0577  1303               	bcf	3,6	;RP1=0, select bank1
  2805     0578  00B8               	movwf	main@vitess^(0+128)
  2806     0579                     l3689:
  2807                           
  2808                           ;main_teste_speed.c: 135:                 sprintf(str_buffer, "%d", vitess);
  2809     0579  30C8               	movlw	(low (main@str_buffer| 0))& (0+255)
  2810     057A  1283               	bcf	3,5	;RP0=0, select bank0
  2811     057B  1303               	bcf	3,6	;RP1=0, select bank0
  2812     057C  00DD               	movwf	sprintf@s
  2813     057D  3063               	movlw	(low (((STR_5+2)-__stringbase)| (0+32768)))& (0+255)
  2814     057E  00DE               	movwf	sprintf@fmt
  2815     057F  1683               	bsf	3,5	;RP0=1, select bank1
  2816     0580  1303               	bcf	3,6	;RP1=0, select bank1
  2817     0581  083B               	movf	(main@vitess+3)^(0+128),w
  2818     0582  1283               	bcf	3,5	;RP0=0, select bank0
  2819     0583  1303               	bcf	3,6	;RP1=0, select bank0
  2820     0584  00E2               	movwf	?_sprintf+5
  2821     0585  1683               	bsf	3,5	;RP0=1, select bank1
  2822     0586  1303               	bcf	3,6	;RP1=0, select bank1
  2823     0587  083A               	movf	(main@vitess+2)^(0+128),w
  2824     0588  1283               	bcf	3,5	;RP0=0, select bank0
  2825     0589  1303               	bcf	3,6	;RP1=0, select bank0
  2826     058A  00E1               	movwf	?_sprintf+4
  2827     058B  1683               	bsf	3,5	;RP0=1, select bank1
  2828     058C  1303               	bcf	3,6	;RP1=0, select bank1
  2829     058D  0839               	movf	(main@vitess+1)^(0+128),w
  2830     058E  1283               	bcf	3,5	;RP0=0, select bank0
  2831     058F  1303               	bcf	3,6	;RP1=0, select bank0
  2832     0590  00E0               	movwf	?_sprintf+3
  2833     0591  1683               	bsf	3,5	;RP0=1, select bank1
  2834     0592  1303               	bcf	3,6	;RP1=0, select bank1
  2835     0593  0838               	movf	main@vitess^(0+128),w
  2836     0594  1283               	bcf	3,5	;RP0=0, select bank0
  2837     0595  1303               	bcf	3,6	;RP1=0, select bank0
  2838     0596  00DF               	movwf	?_sprintf+2
  2839     0597  160A  118A  2091  120A  118A  	fcall	_sprintf
  2840     059C                     l3691:
  2841                           
  2842                           ;main_teste_speed.c: 136:                 USART_Write_Text("Vitesse = ");
  2843     059C  301D               	movlw	(low ((STR_22-__stringbase)| (0+32768)))& (0+255)
  2844     059D  1283               	bcf	3,5	;RP0=0, select bank0
  2845     059E  1303               	bcf	3,6	;RP1=0, select bank0
  2846     059F  00A1               	movwf	USART_Write_Text@str
  2847     05A0  3080               	movlw	128
  2848     05A1  00A2               	movwf	USART_Write_Text@str+1
  2849     05A2  160A  158A  26C4  120A  118A  	fcall	_USART_Write_Text
  2850     05A7                     l3693:
  2851                           
  2852                           ;main_teste_speed.c: 137:                 USART_Write_Text(str_buffer);
  2853     05A7  30C8               	movlw	(low (main@str_buffer| 0))& (0+255)
  2854     05A8  1283               	bcf	3,5	;RP0=0, select bank0
  2855     05A9  1303               	bcf	3,6	;RP1=0, select bank0
  2856     05AA  00A1               	movwf	USART_Write_Text@str
  2857     05AB  3000               	movlw	0
  2858     05AC  00A2               	movwf	USART_Write_Text@str+1
  2859     05AD  160A  158A  26C4  120A  118A  	fcall	_USART_Write_Text
  2860     05B2                     l3695:
  2861                           
  2862                           ;main_teste_speed.c: 138:                 USART_Write_Text(" Km/h");
  2863     05B2  3056               	movlw	(low ((STR_23-__stringbase)| (0+32768)))& (0+255)
  2864     05B3  1283               	bcf	3,5	;RP0=0, select bank0
  2865     05B4  1303               	bcf	3,6	;RP1=0, select bank0
  2866     05B5  00A1               	movwf	USART_Write_Text@str
  2867     05B6  3080               	movlw	128
  2868     05B7  00A2               	movwf	USART_Write_Text@str+1
  2869     05B8  160A  158A  26C4  120A  118A  	fcall	_USART_Write_Text
  2870     05BD                     l3697:
  2871                           
  2872                           ;main_teste_speed.c: 139:                 USART_Write_Char('\r');
  2873     05BD  300D               	movlw	13
  2874     05BE  120A  158A  2003  120A  118A  	fcall	_USART_Write_Char
  2875     05C3                     l3699:
  2876                           
  2877                           ;main_teste_speed.c: 141:                 USART_Write_Text("----------------");
  2878     05C3  3001               	movlw	(low ((STR_7-__stringbase)| (0+32768)))& (0+255)
  2879     05C4  1283               	bcf	3,5	;RP0=0, select bank0
  2880     05C5  1303               	bcf	3,6	;RP1=0, select bank0
  2881     05C6  00A1               	movwf	USART_Write_Text@str
  2882     05C7  3080               	movlw	128
  2883     05C8  00A2               	movwf	USART_Write_Text@str+1
  2884     05C9  160A  158A  26C4  120A  118A  	fcall	_USART_Write_Text
  2885     05CE                     l3701:
  2886                           
  2887                           ;main_teste_speed.c: 142:                 USART_Write_Char('\r');
  2888     05CE  300D               	movlw	13
  2889     05CF  120A  158A  2003  120A  118A  	fcall	_USART_Write_Char
  2890     05D4  2864               	goto	l3559
  2891     05D5  120A  118A  280C   	ljmp	start
  2892     05D8                     __end_of_main:
  2893                           
  2894                           	psect	text1
  2895     1091                     __ptext1:	
  2896 ;; *************** function _sprintf *****************
  2897 ;; Defined at:
  2898 ;;		line 9 in file "C:\Program Files\Microchip\xc8\v3.00\pic\sources\c99\common\nf_sprintf.c"
  2899 ;; Parameters:    Size  Location     Type
  2900 ;;  s               1   61[BANK0 ] PTR unsigned char 
  2901 ;;		 -> main@str_buffer(10), 
  2902 ;;  fmt             1   62[BANK0 ] PTR const unsigned char 
  2903 ;;		 -> STR_21(3), STR_18(3), STR_15(4), STR_12(3), 
  2904 ;;		 -> STR_10(8), STR_8(4), STR_5(5), STR_3(10), 
  2905 ;;		 -> STR_1(4), 
  2906 ;; Auto vars:     Size  Location     Type
  2907 ;;  f              11    1[BANK1 ] struct _IO_FILE
  2908 ;;  ret             2    0        int 
  2909 ;;  ap              1    0[BANK1 ] PTR void [1]
  2910 ;;		 -> ?_sprintf(2), 
  2911 ;; Return value:  Size  Location     Type
  2912 ;;                  2   61[BANK0 ] int 
  2913 ;; Registers used:
  2914 ;;		wreg, fsr0l, fsr0h, status,2, status,0, btemp+1, pclath, cstack
  2915 ;; Tracked objects:
  2916 ;;		On entry : 0/0
  2917 ;;		On exit  : 0/0
  2918 ;;		Unchanged: 0/0
  2919 ;; Data sizes:     COMMON   BANK0   BANK1   BANK3   BANK2
  2920 ;;      Params:         0       8       0       0       0
  2921 ;;      Locals:         0       0      12       0       0
  2922 ;;      Temps:          0       1       0       0       0
  2923 ;;      Totals:         0       9      12       0       0
  2924 ;;Total ram usage:       21 bytes
  2925 ;; Hardware stack levels used: 1
  2926 ;; Hardware stack levels required when called: 8
  2927 ;; This function calls:
  2928 ;;		_vfprintf
  2929 ;; This function is called by:
  2930 ;;		_main
  2931 ;; This function uses a non-reentrant model
  2932 ;;
  2933                           
  2934     1091                     _sprintf:	
  2935                           ;psect for function _sprintf
  2936                           
  2937     1091                     l3365:	
  2938                           ;incstack = 0
  2939 ;; hardware stack exceeded
  2940                           ; Regs used in _sprintf: [wreg-fsr0h+status,2+status,0+btemp+1+pclath+cstack]
  2941                           
  2942     1091  305F               	movlw	(low ((?_sprintf| 0+2)))& (0+255)
  2943     1092  1683               	bsf	3,5	;RP0=1, select bank1
  2944     1093  1303               	bcf	3,6	;RP1=0, select bank1
  2945     1094  00A0               	movwf	sprintf@ap^(0+128)
  2946     1095                     l3367:
  2947     1095  1283               	bcf	3,5	;RP0=0, select bank0
  2948     1096  1303               	bcf	3,6	;RP1=0, select bank0
  2949     1097  085D               	movf	sprintf@s,w
  2950     1098  1683               	bsf	3,5	;RP0=1, select bank1
  2951     1099  1303               	bcf	3,6	;RP1=0, select bank1
  2952     109A  00A1               	movwf	sprintf@f^(0+128)
  2953     109B  3000               	movlw	0
  2954     109C  00A2               	movwf	(sprintf@f+1)^(0+128)
  2955     109D                     l3369:
  2956     109D  01A3               	clrf	(sprintf@f^(0+128)+2)
  2957     109E  01A4               	clrf	((sprintf@f+1)^(0+128)+2)
  2958     109F                     l3371:
  2959     109F  01AA               	clrf	(sprintf@f^(0+128)+9)
  2960     10A0  01AB               	clrf	((sprintf@f+1)^(0+128)+9)
  2961     10A1                     l3373:
  2962     10A1  30A1               	movlw	low sprintf@f
  2963     10A2  1283               	bcf	3,5	;RP0=0, select bank0
  2964     10A3  1303               	bcf	3,6	;RP1=0, select bank0
  2965     10A4  00D8               	movwf	vfprintf@fp
  2966     10A5  3000               	movlw	high sprintf@f
  2967     10A6  00D9               	movwf	vfprintf@fp+1
  2968     10A7  085E               	movf	sprintf@fmt,w
  2969     10A8  00DA               	movwf	vfprintf@fmt
  2970     10A9  30A0               	movlw	(low (sprintf@ap| 0))& (0+255)
  2971     10AA  00DB               	movwf	vfprintf@ap
  2972     10AB  160A  158A  2655  160A  118A  	fcall	_vfprintf
  2973     10B0                     l3375:
  2974     10B0  1683               	bsf	3,5	;RP0=1, select bank1
  2975     10B1  1303               	bcf	3,6	;RP1=0, select bank1
  2976     10B2  0823               	movf	(sprintf@f^(0+128)+2),w
  2977     10B3  1283               	bcf	3,5	;RP0=0, select bank0
  2978     10B4  1303               	bcf	3,6	;RP1=0, select bank0
  2979     10B5  075D               	addwf	sprintf@s,w
  2980     10B6  00E5               	movwf	??_sprintf
  2981     10B7  0865               	movf	??_sprintf,w
  2982     10B8  0084               	movwf	4
  2983     10B9  1383               	bcf	3,7	;select IRP bank0
  2984     10BA  0180               	clrf	0
  2985     10BB                     l751:
  2986     10BB  0008               	return
  2987     10BC                     __end_of_sprintf:
  2988                           
  2989                           	psect	text2
  2990     1E55                     __ptext2:	
  2991 ;; *************** function _vfprintf *****************
  2992 ;; Defined at:
  2993 ;;		line 1817 in file "C:\Program Files\Microchip\xc8\v3.00\pic\sources\c99\common\doprnt.c"
  2994 ;; Parameters:    Size  Location     Type
  2995 ;;  fp              2   56[BANK0 ] PTR struct _IO_FILE
  2996 ;;		 -> sprintf@f(11), 
  2997 ;;  fmt             1   58[BANK0 ] PTR const unsigned char 
  2998 ;;		 -> STR_21(3), STR_18(3), STR_15(4), STR_12(3), 
  2999 ;;		 -> STR_10(8), STR_8(4), STR_5(5), STR_3(10), 
  3000 ;;		 -> STR_1(4), 
  3001 ;;  ap              1   59[BANK0 ] PTR PTR void 
  3002 ;;		 -> sprintf@ap(1), 
  3003 ;; Auto vars:     Size  Location     Type
  3004 ;;  cfmt            1   60[BANK0 ] PTR unsigned char 
  3005 ;;		 -> STR_21(3), STR_18(3), STR_15(4), STR_12(3), 
  3006 ;;		 -> STR_10(8), STR_8(4), STR_5(5), STR_3(10), 
  3007 ;;		 -> STR_1(4), 
  3008 ;; Return value:  Size  Location     Type
  3009 ;;                  2   56[BANK0 ] int 
  3010 ;; Registers used:
  3011 ;;		wreg, fsr0l, fsr0h, status,2, status,0, btemp+1, pclath, cstack
  3012 ;; Tracked objects:
  3013 ;;		On entry : 0/0
  3014 ;;		On exit  : 0/0
  3015 ;;		Unchanged: 0/0
  3016 ;; Data sizes:     COMMON   BANK0   BANK1   BANK3   BANK2
  3017 ;;      Params:         0       4       0       0       0
  3018 ;;      Locals:         0       1       0       0       0
  3019 ;;      Temps:          0       0       0       0       0
  3020 ;;      Totals:         0       5       0       0       0
  3021 ;;Total ram usage:        5 bytes
  3022 ;; Hardware stack levels used: 1
  3023 ;; Hardware stack levels required when called: 7
  3024 ;; This function calls:
  3025 ;;		_vfpfcnvrt
  3026 ;; This function is called by:
  3027 ;;		_sprintf
  3028 ;; This function uses a non-reentrant model
  3029 ;;
  3030                           
  3031     1E55                     _vfprintf:	
  3032                           ;psect for function _vfprintf
  3033                           
  3034     1E55                     l3279:	
  3035                           ;incstack = 0
  3036 ;; hardware stack exceeded
  3037                           ; Regs used in _vfprintf: [wreg-fsr0h+status,2+status,0+btemp+1+pclath+cstack]
  3038                           
  3039                           
  3040                           ;C:\Program Files\Microchip\xc8\v3.00\pic\sources\c99\common\doprnt.c: 1817: int vfprint
      +                          f(FILE *fp, const char *fmt, va_list ap);C:\Program Files\Microchip\xc8\v3.00\pic\source
      +                          s\c99\common\doprnt.c: 1818: {;C:\Program Files\Microchip\xc8\v3.00\pic\sources\c99\comm
      +                          on\doprnt.c: 1820:     char *cfmt;;C:\Program Files\Microchip\xc8\v3.00\pic\sources\c99\
      +                          common\doprnt.c: 1822:     cfmt = (char *)fmt;
  3041     1E55  1283               	bcf	3,5	;RP0=0, select bank0
  3042     1E56  1303               	bcf	3,6	;RP1=0, select bank0
  3043     1E57  085A               	movf	vfprintf@fmt,w
  3044     1E58  00DC               	movwf	vfprintf@cfmt
  3045                           
  3046                           ;C:\Program Files\Microchip\xc8\v3.00\pic\sources\c99\common\doprnt.c: 1826:     while (
      +                          *cfmt) {
  3047     1E59  2E67               	goto	l3283
  3048     1E5A                     l3281:
  3049                           
  3050                           ;C:\Program Files\Microchip\xc8\v3.00\pic\sources\c99\common\doprnt.c: 1830:    vfpfcnvr
      +                          t(fp, &cfmt, ap);
  3051     1E5A  0858               	movf	vfprintf@fp,w
  3052     1E5B  00CB               	movwf	vfpfcnvrt@fp
  3053     1E5C  0859               	movf	vfprintf@fp+1,w
  3054     1E5D  00CC               	movwf	vfpfcnvrt@fp+1
  3055     1E5E  305C               	movlw	(low (vfprintf@cfmt| 0))& (0+255)
  3056     1E5F  00CD               	movwf	vfpfcnvrt@fmt
  3057     1E60  085B               	movf	vfprintf@ap,w
  3058     1E61  00CE               	movwf	vfpfcnvrt@ap
  3059     1E62  120A  158A  2064  160A  158A  	fcall	_vfpfcnvrt
  3060     1E67                     l3283:
  3061                           
  3062                           ;C:\Program Files\Microchip\xc8\v3.00\pic\sources\c99\common\doprnt.c: 1826:     while (
      +                          *cfmt) {
  3063     1E67  1283               	bcf	3,5	;RP0=0, select bank0
  3064     1E68  1303               	bcf	3,6	;RP1=0, select bank0
  3065     1E69  085C               	movf	vfprintf@cfmt,w
  3066     1E6A  0084               	movwf	4
  3067     1E6B  160A  118A  200A  160A  158A  	fcall	stringdir
  3068     1E70  3A00               	xorlw	0
  3069     1E71  1D03               	skipz
  3070     1E72  2E74               	goto	u4631
  3071     1E73  2E75               	goto	u4630
  3072     1E74                     u4631:
  3073     1E74  2E5A               	goto	l3281
  3074     1E75                     u4630:
  3075     1E75                     l3285:
  3076                           
  3077                           ;C:\Program Files\Microchip\xc8\v3.00\pic\sources\c99\common\doprnt.c: 1835:  return 0;
  3078     1E75  01D8               	clrf	?_vfprintf
  3079     1E76  01D9               	clrf	?_vfprintf+1
  3080     1E77                     l869:
  3081     1E77  0008               	return
  3082     1E78                     __end_of_vfprintf:
  3083                           
  3084                           	psect	text3
  3085     0864                     __ptext3:	
  3086 ;; *************** function _vfpfcnvrt *****************
  3087 ;; Defined at:
  3088 ;;		line 1177 in file "C:\Program Files\Microchip\xc8\v3.00\pic\sources\c99\common\doprnt.c"
  3089 ;; Parameters:    Size  Location     Type
  3090 ;;  fp              2   43[BANK0 ] PTR struct _IO_FILE
  3091 ;;		 -> sprintf@f(11), 
  3092 ;;  fmt             1   45[BANK0 ] PTR PTR unsigned char 
  3093 ;;		 -> vfprintf@cfmt(1), 
  3094 ;;  ap              1   46[BANK0 ] PTR PTR void 
  3095 ;;		 -> sprintf@ap(1), 
  3096 ;; Auto vars:     Size  Location     Type
  3097 ;;  convarg         4   50[BANK0 ] struct .
  3098 ;;  cp              1   55[BANK0 ] PTR unsigned char 
  3099 ;;		 -> STR_21(3), STR_18(3), STR_15(4), STR_12(3), 
  3100 ;;		 -> STR_10(8), STR_8(4), STR_5(5), STR_3(10), 
  3101 ;;		 -> STR_1(4), 
  3102 ;;  c               1   54[BANK0 ] unsigned char 
  3103 ;;  done            1   49[BANK0 ] _Bool 
  3104 ;; Return value:  Size  Location     Type
  3105 ;;                  1    wreg      void 
  3106 ;; Registers used:
  3107 ;;		wreg, fsr0l, fsr0h, status,2, status,0, btemp+1, pclath, cstack
  3108 ;; Tracked objects:
  3109 ;;		On entry : 0/0
  3110 ;;		On exit  : 0/0
  3111 ;;		Unchanged: 0/0
  3112 ;; Data sizes:     COMMON   BANK0   BANK1   BANK3   BANK2
  3113 ;;      Params:         0       4       0       0       0
  3114 ;;      Locals:         0       7       0       0       0
  3115 ;;      Temps:          0       2       0       0       0
  3116 ;;      Totals:         0      13       0       0       0
  3117 ;;Total ram usage:       13 bytes
  3118 ;; Hardware stack levels used: 1
  3119 ;; Hardware stack levels required when called: 6
  3120 ;; This function calls:
  3121 ;;		_ctoa
  3122 ;;		_dtoa
  3123 ;;		_fputc
  3124 ;;		_read_prec_or_width
  3125 ;;		_utoa
  3126 ;; This function is called by:
  3127 ;;		_vfprintf
  3128 ;; This function uses a non-reentrant model
  3129 ;;
  3130                           
  3131     0864                     _vfpfcnvrt:	
  3132                           ;psect for function _vfpfcnvrt
  3133                           
  3134     0864                     l2637:	
  3135                           ;incstack = 0
  3136 ;; hardware stack exceeded
  3137                           ; Regs used in _vfpfcnvrt: [wreg-fsr0h+status,2+status,0+btemp+1+pclath+cstack]
  3138                           
  3139                           
  3140                           ;C:\Program Files\Microchip\xc8\v3.00\pic\sources\c99\common\doprnt.c: 1177: vfpfcnvrt(F
      +                          ILE *fp, char *fmt[], va_list ap);C:\Program Files\Microchip\xc8\v3.00\pic\sources\c99\c
      +                          ommon\doprnt.c: 1178: {;C:\Program Files\Microchip\xc8\v3.00\pic\sources\c99\common\dopr
      +                          nt.c: 1179:     char c, *cp;;C:\Program Files\Microchip\xc8\v3.00\pic\sources\c99\common
      +                          \doprnt.c: 1180:     _Bool done;;C:\Program Files\Microchip\xc8\v3.00\pic\sources\c99\co
      +                          mmon\doprnt.c: 1188:  } convarg;;C:\Program Files\Microchip\xc8\v3.00\pic\sources\c99\co
      +                          mmon\doprnt.c: 1201:     if ((*fmt)[0] == '%') {
  3141     0864  1283               	bcf	3,5	;RP0=0, select bank0
  3142     0865  1303               	bcf	3,6	;RP1=0, select bank0
  3143     0866  084D               	movf	vfpfcnvrt@fmt,w
  3144     0867  0084               	movwf	4
  3145     0868  1383               	bcf	3,7	;select IRP bank0
  3146     0869  0800               	movf	0,w
  3147     086A  0084               	movwf	4
  3148     086B  160A  118A  200A  120A  158A  	fcall	stringdir
  3149     0870  3A25               	xorlw	37
  3150     0871  1D03               	skipz
  3151     0872  2874               	goto	u3321
  3152     0873  2875               	goto	u3320
  3153     0874                     u3321:
  3154     0874  29D2               	goto	l2727
  3155     0875                     u3320:
  3156     0875                     l2639:
  3157                           
  3158                           ;C:\Program Files\Microchip\xc8\v3.00\pic\sources\c99\common\doprnt.c: 1202:         ++*
      +                          fmt;
  3159     0875  084D               	movf	vfpfcnvrt@fmt,w
  3160     0876  0084               	movwf	4
  3161     0877  3001               	movlw	1
  3162     0878  0780               	addwf	0,f
  3163     0879                     l2641:
  3164                           
  3165                           ;C:\Program Files\Microchip\xc8\v3.00\pic\sources\c99\common\doprnt.c: 1204:         fla
      +                          gs = width = 0;
  3166     0879  01F8               	clrf	_width
  3167     087A  01F9               	clrf	_width+1
  3168     087B  3000               	movlw	0
  3169     087C  00FC               	movwf	_flags
  3170     087D                     l2643:
  3171                           
  3172                           ;C:\Program Files\Microchip\xc8\v3.00\pic\sources\c99\common\doprnt.c: 1205:         pre
      +                          c = -1;
  3173     087D  30FF               	movlw	255
  3174     087E  1683               	bsf	3,5	;RP0=1, select bank1
  3175     087F  1303               	bcf	3,6	;RP1=0, select bank1
  3176     0880  00E0               	movwf	_prec^(0+128)
  3177     0881  30FF               	movlw	255
  3178     0882  00E1               	movwf	(_prec^(0+128)+1)
  3179     0883                     l2645:
  3180                           
  3181                           ;C:\Program Files\Microchip\xc8\v3.00\pic\sources\c99\common\doprnt.c: 1209:         don
      +                          e = 0;
  3182     0883  1283               	bcf	3,5	;RP0=0, select bank0
  3183     0884  1303               	bcf	3,6	;RP1=0, select bank0
  3184     0885  01D1               	clrf	vfpfcnvrt@done
  3185                           
  3186                           ;C:\Program Files\Microchip\xc8\v3.00\pic\sources\c99\common\doprnt.c: 1210:         whi
      +                          le (!done) {
  3187     0886  289D               	goto	l2653
  3188     0887                     l833:	
  3189                           ;C:\Program Files\Microchip\xc8\v3.00\pic\sources\c99\common\doprnt.c: 1219:            
      +                               case '0' :
  3190                           
  3191                           
  3192                           ;C:\Program Files\Microchip\xc8\v3.00\pic\sources\c99\common\doprnt.c: 1220:            
      +                                   flags |= (1 << 1);
  3193     0887  14FC               	bsf	_flags,1
  3194     0888                     l2647:
  3195                           
  3196                           ;C:\Program Files\Microchip\xc8\v3.00\pic\sources\c99\common\doprnt.c: 1221:            
      +                                   ++*fmt;
  3197     0888  084D               	movf	vfpfcnvrt@fmt,w
  3198     0889  0084               	movwf	4
  3199     088A  3001               	movlw	1
  3200     088B  0780               	addwf	0,f
  3201                           
  3202                           ;C:\Program Files\Microchip\xc8\v3.00\pic\sources\c99\common\doprnt.c: 1222:            
      +                                   break;
  3203     088C  289D               	goto	l2653
  3204     088D                     l835:	
  3205                           ;C:\Program Files\Microchip\xc8\v3.00\pic\sources\c99\common\doprnt.c: 1242:            
      +                               default:
  3206                           
  3207                           
  3208                           ;C:\Program Files\Microchip\xc8\v3.00\pic\sources\c99\common\doprnt.c: 1243:            
      +                                   done = 1;
  3209     088D  3001               	movlw	1
  3210     088E  00D1               	movwf	vfpfcnvrt@done
  3211                           
  3212                           ;C:\Program Files\Microchip\xc8\v3.00\pic\sources\c99\common\doprnt.c: 1244:            
      +                                   break;
  3213     088F  289D               	goto	l2653
  3214     0890                     l2651:
  3215     0890  084D               	movf	vfpfcnvrt@fmt,w
  3216     0891  0084               	movwf	4
  3217     0892  0800               	movf	0,w
  3218     0893  0084               	movwf	4
  3219     0894  160A  118A  200A  120A  158A  	fcall	stringdir
  3220                           
  3221                           ; Switch size 1, requested type "simple"
  3222                           ; Number of cases is 1, Range of values is 48 to 48
  3223                           ; switch strategies available:
  3224                           ; Name         Instructions Cycles
  3225                           ; simple_byte            4     3 (average)
  3226                           ; direct_byte           14    11 (fixed)
  3227                           ; jumptable            263     9 (fixed)
  3228                           ;	Chosen strategy is simple_byte
  3229     0899  3A30               	xorlw	48	; case 48
  3230     089A  1903               	skipnz
  3231     089B  2887               	goto	l833
  3232     089C  288D               	goto	l835
  3233     089D                     l2653:
  3234                           
  3235                           ;C:\Program Files\Microchip\xc8\v3.00\pic\sources\c99\common\doprnt.c: 1210:         whi
      +                          le (!done) {
  3236     089D  0851               	movf	vfpfcnvrt@done,w
  3237     089E  1903               	btfsc	3,2
  3238     089F  28A1               	goto	u3331
  3239     08A0  28A2               	goto	u3330
  3240     08A1                     u3331:
  3241     08A1  2890               	goto	l2651
  3242     08A2                     u3330:
  3243     08A2                     l2655:
  3244                           
  3245                           ;C:\Program Files\Microchip\xc8\v3.00\pic\sources\c99\common\doprnt.c: 1256:   width = r
      +                          ead_prec_or_width(fmt, ap);
  3246     08A2  084D               	movf	vfpfcnvrt@fmt,w
  3247     08A3  00B4               	movwf	read_prec_or_width@fmt
  3248     08A4  084E               	movf	vfpfcnvrt@ap,w
  3249     08A5  00B5               	movwf	read_prec_or_width@ap
  3250     08A6  120A  158A  200D  120A  158A  	fcall	_read_prec_or_width
  3251     08AB  1283               	bcf	3,5	;RP0=0, select bank0
  3252     08AC  1303               	bcf	3,6	;RP1=0, select bank0
  3253     08AD  0835               	movf	?_read_prec_or_width+1,w
  3254     08AE  00F9               	movwf	_width+1
  3255     08AF  0834               	movf	?_read_prec_or_width,w
  3256     08B0  00F8               	movwf	_width
  3257     08B1                     l2657:
  3258                           
  3259                           ;C:\Program Files\Microchip\xc8\v3.00\pic\sources\c99\common\doprnt.c: 1257:   if (width
      +                           < 0) {
  3260     08B1  1FF9               	btfss	_width+1,7
  3261     08B2  28B4               	goto	u3341
  3262     08B3  28B5               	goto	u3340
  3263     08B4                     u3341:
  3264     08B4  28BB               	goto	l2663
  3265     08B5                     u3340:
  3266     08B5                     l2659:
  3267                           
  3268                           ;C:\Program Files\Microchip\xc8\v3.00\pic\sources\c99\common\doprnt.c: 1258:    flags |=
      +                           (1 << 0);
  3269     08B5  147C               	bsf	_flags,0
  3270     08B6                     l2661:
  3271                           
  3272                           ;C:\Program Files\Microchip\xc8\v3.00\pic\sources\c99\common\doprnt.c: 1259:    width = 
      +                          -width;
  3273     08B6  09F8               	comf	_width,f
  3274     08B7  09F9               	comf	_width+1,f
  3275     08B8  0AF8               	incf	_width,f
  3276     08B9  1903               	skipnz
  3277     08BA  0AF9               	incf	_width+1,f
  3278     08BB                     l2663:
  3279                           
  3280                           ;C:\Program Files\Microchip\xc8\v3.00\pic\sources\c99\common\doprnt.c: 1273:         if 
      +                          ((*fmt)[0] == 'c') {
  3281     08BB  084D               	movf	vfpfcnvrt@fmt,w
  3282     08BC  0084               	movwf	4
  3283     08BD  1383               	bcf	3,7	;select IRP bank0
  3284     08BE  0800               	movf	0,w
  3285     08BF  0084               	movwf	4
  3286     08C0  160A  118A  200A  120A  158A  	fcall	stringdir
  3287     08C5  3A63               	xorlw	99
  3288     08C6  1D03               	skipz
  3289     08C7  28C9               	goto	u3351
  3290     08C8  28CA               	goto	u3350
  3291     08C9                     u3351:
  3292     08C9  28E4               	goto	l2673
  3293     08CA                     u3350:
  3294     08CA                     l2665:
  3295                           
  3296                           ;C:\Program Files\Microchip\xc8\v3.00\pic\sources\c99\common\doprnt.c: 1274:            
      +                           ++*fmt;
  3297     08CA  084D               	movf	vfpfcnvrt@fmt,w
  3298     08CB  0084               	movwf	4
  3299     08CC  3001               	movlw	1
  3300     08CD  0780               	addwf	0,f
  3301     08CE                     l2667:
  3302                           
  3303                           ;C:\Program Files\Microchip\xc8\v3.00\pic\sources\c99\common\doprnt.c: 1275:            
      +                           c = (unsigned char)(*(int *)__va_arg(*(int **)ap, (int)0));
  3304     08CE  084E               	movf	vfpfcnvrt@ap,w
  3305     08CF  0084               	movwf	4
  3306     08D0  0800               	movf	0,w
  3307     08D1  00FF               	movwf	btemp+1
  3308     08D2  3002               	movlw	2
  3309     08D3  0780               	addwf	0,f
  3310     08D4  087F               	movf	btemp+1,w
  3311     08D5  0084               	movwf	4
  3312     08D6  0800               	movf	0,w
  3313     08D7  00D6               	movwf	vfpfcnvrt@c
  3314     08D8                     l2669:
  3315                           
  3316                           ;C:\Program Files\Microchip\xc8\v3.00\pic\sources\c99\common\doprnt.c: 1284:            
      +                           return (void) ctoa(fp, c);;	Return value of _vfpfcnvrt is never used
  3317     08D8  084B               	movf	vfpfcnvrt@fp,w
  3318     08D9  00AD               	movwf	ctoa@fp
  3319     08DA  084C               	movf	vfpfcnvrt@fp+1,w
  3320     08DB  00AE               	movwf	ctoa@fp+1
  3321     08DC  0856               	movf	vfpfcnvrt@c,w
  3322     08DD  00AF               	movwf	ctoa@c
  3323     08DE  160A  118A  2282  120A  158A  	fcall	_ctoa
  3324     08E3  29EB               	goto	l839
  3325     08E4                     l2673:
  3326                           
  3327                           ;C:\Program Files\Microchip\xc8\v3.00\pic\sources\c99\common\doprnt.c: 1291:   cp = *fmt
      +                          ;
  3328     08E4  084D               	movf	vfpfcnvrt@fmt,w
  3329     08E5  0084               	movwf	4
  3330     08E6  0800               	movf	0,w
  3331     08E7  00D7               	movwf	vfpfcnvrt@cp
  3332     08E8                     l2675:
  3333                           
  3334                           ;C:\Program Files\Microchip\xc8\v3.00\pic\sources\c99\common\doprnt.c: 1293:   c = *cp;
  3335     08E8  0857               	movf	vfpfcnvrt@cp,w
  3336     08E9  0084               	movwf	4
  3337     08EA  160A  118A  200A  120A  158A  	fcall	stringdir
  3338     08EF  00D6               	movwf	vfpfcnvrt@c
  3339                           
  3340                           ;C:\Program Files\Microchip\xc8\v3.00\pic\sources\c99\common\doprnt.c: 1294:   switch(c)
      +                           {
  3341     08F0  28F9               	goto	l2683
  3342     08F1                     l2677:
  3343                           
  3344                           ;C:\Program Files\Microchip\xc8\v3.00\pic\sources\c99\common\doprnt.c: 1309:     cp++;
  3345     08F1  3001               	movlw	1
  3346     08F2  07D7               	addwf	vfpfcnvrt@cp,f
  3347                           
  3348                           ;C:\Program Files\Microchip\xc8\v3.00\pic\sources\c99\common\doprnt.c: 1316:     break;
  3349     08F3  2907               	goto	l2685
  3350     08F4                     l845:	
  3351                           ;C:\Program Files\Microchip\xc8\v3.00\pic\sources\c99\common\doprnt.c: 1339:    case 'd'
      +                          :
  3352                           
  3353                           
  3354                           ;C:\Program Files\Microchip\xc8\v3.00\pic\sources\c99\common\doprnt.c: 1350:     c = 'i'
      +                          ;
  3355     08F4  3069               	movlw	105
  3356     08F5  00D6               	movwf	vfpfcnvrt@c
  3357                           
  3358                           ;C:\Program Files\Microchip\xc8\v3.00\pic\sources\c99\common\doprnt.c: 1351:     break;
  3359     08F6  2907               	goto	l2685
  3360     08F7                     l2679:
  3361                           
  3362                           ;C:\Program Files\Microchip\xc8\v3.00\pic\sources\c99\common\doprnt.c: 1353:     c = 0;
  3363     08F7  01D6               	clrf	vfpfcnvrt@c
  3364                           
  3365                           ;C:\Program Files\Microchip\xc8\v3.00\pic\sources\c99\common\doprnt.c: 1354:     break;
  3366     08F8  2907               	goto	l2685
  3367     08F9                     l2683:
  3368     08F9  0856               	movf	vfpfcnvrt@c,w
  3369                           
  3370                           ; Switch size 1, requested type "simple"
  3371                           ; Number of cases is 4, Range of values is 100 to 117
  3372                           ; switch strategies available:
  3373                           ; Name         Instructions Cycles
  3374                           ; simple_byte           13     7 (average)
  3375                           ; direct_byte           65    11 (fixed)
  3376                           ; jumptable            263     9 (fixed)
  3377                           ;	Chosen strategy is simple_byte
  3378     08FA  3A64               	xorlw	100	; case 100
  3379     08FB  1903               	skipnz
  3380     08FC  28F4               	goto	l845
  3381     08FD  3A0D               	xorlw	13	; case 105
  3382     08FE  1903               	skipnz
  3383     08FF  28F4               	goto	l845
  3384     0900  3A05               	xorlw	5	; case 108
  3385     0901  1903               	skipnz
  3386     0902  28F1               	goto	l2677
  3387     0903  3A19               	xorlw	25	; case 117
  3388     0904  1903               	skipnz
  3389     0905  28F4               	goto	l845
  3390     0906  28F7               	goto	l2679
  3391     0907                     l2685:
  3392                           
  3393                           ;C:\Program Files\Microchip\xc8\v3.00\pic\sources\c99\common\doprnt.c: 1361:   if (*cp =
      +                          = 'd' || *cp == 'i') {
  3394     0907  0857               	movf	vfpfcnvrt@cp,w
  3395     0908  0084               	movwf	4
  3396     0909  160A  118A  200A  120A  158A  	fcall	stringdir
  3397     090E  3A64               	xorlw	100
  3398     090F  1903               	skipnz
  3399     0910  2912               	goto	u3361
  3400     0911  2913               	goto	u3360
  3401     0912                     u3361:
  3402     0912  294B               	goto	l2695
  3403     0913                     u3360:
  3404     0913                     l2687:
  3405     0913  0857               	movf	vfpfcnvrt@cp,w
  3406     0914  0084               	movwf	4
  3407     0915  160A  118A  200A  120A  158A  	fcall	stringdir
  3408     091A  3A69               	xorlw	105
  3409     091B  1D03               	skipz
  3410     091C  291E               	goto	u3371
  3411     091D  291F               	goto	u3370
  3412     091E                     u3371:
  3413     091E  296A               	goto	l2703
  3414     091F                     u3370:
  3415     091F  294B               	goto	l2695
  3416     0920                     l2689:
  3417                           
  3418                           ;C:\Program Files\Microchip\xc8\v3.00\pic\sources\c99\common\doprnt.c: 1365:      convar
      +                          g.sint = (vfpf_sint_t)(int)(*(int *)__va_arg(*(int **)ap, (int)0));
  3419     0920  084E               	movf	vfpfcnvrt@ap,w
  3420     0921  0084               	movwf	4
  3421     0922  0800               	movf	0,w
  3422     0923  00FF               	movwf	btemp+1
  3423     0924  3002               	movlw	2
  3424     0925  0780               	addwf	0,f
  3425     0926  087F               	movf	btemp+1,w
  3426     0927  0084               	movwf	4
  3427     0928  0800               	movf	0,w
  3428     0929  00CF               	movwf	??_vfpfcnvrt
  3429     092A  0A84               	incf	4,f
  3430     092B  0800               	movf	0,w
  3431     092C  00D0               	movwf	??_vfpfcnvrt+1
  3432     092D  084F               	movf	??_vfpfcnvrt,w
  3433     092E  00D2               	movwf	vfpfcnvrt@convarg
  3434     092F  0850               	movf	??_vfpfcnvrt+1,w
  3435     0930  00D3               	movwf	vfpfcnvrt@convarg+1
  3436     0931  3000               	movlw	0
  3437     0932  1BD3               	btfsc	vfpfcnvrt@convarg+1,7
  3438     0933  30FF               	movlw	255
  3439     0934  00D4               	movwf	vfpfcnvrt@convarg+2
  3440     0935  00D5               	movwf	vfpfcnvrt@convarg+3
  3441                           
  3442                           ;C:\Program Files\Microchip\xc8\v3.00\pic\sources\c99\common\doprnt.c: 1366:      break;
  3443     0936  2953               	goto	l2697
  3444     0937                     l2691:
  3445                           
  3446                           ;C:\Program Files\Microchip\xc8\v3.00\pic\sources\c99\common\doprnt.c: 1379:      convar
      +                          g.sint = (vfpf_sint_t)(*(long *)__va_arg(*(long **)ap, (long)0));
  3447     0937  084E               	movf	vfpfcnvrt@ap,w
  3448     0938  0084               	movwf	4
  3449     0939  0800               	movf	0,w
  3450     093A  00FF               	movwf	btemp+1
  3451     093B  3004               	movlw	4
  3452     093C  0780               	addwf	0,f
  3453     093D  087F               	movf	btemp+1,w
  3454     093E  0084               	movwf	4
  3455     093F  0800               	movf	0,w
  3456     0940  00D2               	movwf	vfpfcnvrt@convarg
  3457     0941  0A84               	incf	4,f
  3458     0942  0800               	movf	0,w
  3459     0943  00D3               	movwf	vfpfcnvrt@convarg+1
  3460     0944  0A84               	incf	4,f
  3461     0945  0800               	movf	0,w
  3462     0946  00D4               	movwf	vfpfcnvrt@convarg+2
  3463     0947  0A84               	incf	4,f
  3464     0948  0800               	movf	0,w
  3465     0949  00D5               	movwf	vfpfcnvrt@convarg+3
  3466                           
  3467                           ;C:\Program Files\Microchip\xc8\v3.00\pic\sources\c99\common\doprnt.c: 1380:      break;
  3468     094A  2953               	goto	l2697
  3469     094B                     l2695:
  3470     094B  0856               	movf	vfpfcnvrt@c,w
  3471                           
  3472                           ; Switch size 1, requested type "simple"
  3473                           ; Number of cases is 2, Range of values is 105 to 108
  3474                           ; switch strategies available:
  3475                           ; Name         Instructions Cycles
  3476                           ; simple_byte            7     4 (average)
  3477                           ; direct_byte           23    11 (fixed)
  3478                           ; jumptable            263     9 (fixed)
  3479                           ;	Chosen strategy is simple_byte
  3480     094C  3A69               	xorlw	105	; case 105
  3481     094D  1903               	skipnz
  3482     094E  2920               	goto	l2689
  3483     094F  3A05               	xorlw	5	; case 108
  3484     0950  1903               	skipnz
  3485     0951  2937               	goto	l2691
  3486     0952  2953               	goto	l2697
  3487     0953                     l2697:
  3488                           
  3489                           ;C:\Program Files\Microchip\xc8\v3.00\pic\sources\c99\common\doprnt.c: 1406:    *fmt = c
      +                          p+1;
  3490     0953  084D               	movf	vfpfcnvrt@fmt,w
  3491     0954  0084               	movwf	4
  3492     0955  0857               	movf	vfpfcnvrt@cp,w
  3493     0956  3E01               	addlw	1
  3494     0957  0080               	movwf	0
  3495     0958                     l2699:
  3496                           
  3497                           ;C:\Program Files\Microchip\xc8\v3.00\pic\sources\c99\common\doprnt.c: 1432:    return (
      +                          void) dtoa(fp, convarg.sint);;	Return value of _vfpfcnvrt is never used
  3498     0958  084B               	movf	vfpfcnvrt@fp,w
  3499     0959  00BD               	movwf	dtoa@fp
  3500     095A  084C               	movf	vfpfcnvrt@fp+1,w
  3501     095B  00BE               	movwf	dtoa@fp+1
  3502     095C  0855               	movf	vfpfcnvrt@convarg+3,w
  3503     095D  00C2               	movwf	dtoa@d+3
  3504     095E  0854               	movf	vfpfcnvrt@convarg+2,w
  3505     095F  00C1               	movwf	dtoa@d+2
  3506     0960  0853               	movf	vfpfcnvrt@convarg+1,w
  3507     0961  00C0               	movwf	dtoa@d+1
  3508     0962  0852               	movf	vfpfcnvrt@convarg,w
  3509     0963  00BF               	movwf	dtoa@d
  3510     0964  160A  118A  2724  120A  158A  	fcall	_dtoa
  3511     0969  29EB               	goto	l839
  3512     096A                     l2703:
  3513     096A  0857               	movf	vfpfcnvrt@cp,w
  3514     096B  0084               	movwf	4
  3515     096C  160A  118A  200A  120A  158A  	fcall	stringdir
  3516     0971  3A75               	xorlw	117
  3517     0972  1D03               	skipz
  3518     0973  2975               	goto	u3381
  3519     0974  2976               	goto	u3380
  3520     0975                     u3381:
  3521     0975  29CA               	goto	l2723
  3522     0976                     u3380:
  3523     0976  299F               	goto	l2711
  3524     0977                     l2705:
  3525                           
  3526                           ;C:\Program Files\Microchip\xc8\v3.00\pic\sources\c99\common\doprnt.c: 1456:      convar
      +                          g.uint = (vfpf_uint_t)(unsigned int)(*(unsigned int *)__va_arg(*(unsigned int **)ap, (un
      +                          signed int)0));
  3527     0977  084E               	movf	vfpfcnvrt@ap,w
  3528     0978  0084               	movwf	4
  3529     0979  0800               	movf	0,w
  3530     097A  00FF               	movwf	btemp+1
  3531     097B  3002               	movlw	2
  3532     097C  0780               	addwf	0,f
  3533     097D  087F               	movf	btemp+1,w
  3534     097E  0084               	movwf	4
  3535     097F  0800               	movf	0,w
  3536     0980  00CF               	movwf	??_vfpfcnvrt
  3537     0981  0A84               	incf	4,f
  3538     0982  0800               	movf	0,w
  3539     0983  00D0               	movwf	??_vfpfcnvrt+1
  3540     0984  084F               	movf	??_vfpfcnvrt,w
  3541     0985  00D2               	movwf	vfpfcnvrt@convarg
  3542     0986  0850               	movf	??_vfpfcnvrt+1,w
  3543     0987  00D3               	movwf	vfpfcnvrt@convarg+1
  3544     0988  01D4               	clrf	vfpfcnvrt@convarg+2
  3545     0989  01D5               	clrf	vfpfcnvrt@convarg+3
  3546                           
  3547                           ;C:\Program Files\Microchip\xc8\v3.00\pic\sources\c99\common\doprnt.c: 1457:      break;
  3548     098A  29A7               	goto	l2713
  3549     098B                     l2707:
  3550                           
  3551                           ;C:\Program Files\Microchip\xc8\v3.00\pic\sources\c99\common\doprnt.c: 1470:      convar
      +                          g.uint = (vfpf_uint_t)(*(unsigned long *)__va_arg(*(unsigned long **)ap, (unsigned long)
      +                          0));
  3552     098B  084E               	movf	vfpfcnvrt@ap,w
  3553     098C  0084               	movwf	4
  3554     098D  0800               	movf	0,w
  3555     098E  00FF               	movwf	btemp+1
  3556     098F  3004               	movlw	4
  3557     0990  0780               	addwf	0,f
  3558     0991  087F               	movf	btemp+1,w
  3559     0992  0084               	movwf	4
  3560     0993  0800               	movf	0,w
  3561     0994  00D2               	movwf	vfpfcnvrt@convarg
  3562     0995  0A84               	incf	4,f
  3563     0996  0800               	movf	0,w
  3564     0997  00D3               	movwf	vfpfcnvrt@convarg+1
  3565     0998  0A84               	incf	4,f
  3566     0999  0800               	movf	0,w
  3567     099A  00D4               	movwf	vfpfcnvrt@convarg+2
  3568     099B  0A84               	incf	4,f
  3569     099C  0800               	movf	0,w
  3570     099D  00D5               	movwf	vfpfcnvrt@convarg+3
  3571                           
  3572                           ;C:\Program Files\Microchip\xc8\v3.00\pic\sources\c99\common\doprnt.c: 1471:      break;
  3573     099E  29A7               	goto	l2713
  3574     099F                     l2711:
  3575     099F  0856               	movf	vfpfcnvrt@c,w
  3576                           
  3577                           ; Switch size 1, requested type "simple"
  3578                           ; Number of cases is 2, Range of values is 105 to 108
  3579                           ; switch strategies available:
  3580                           ; Name         Instructions Cycles
  3581                           ; simple_byte            7     4 (average)
  3582                           ; direct_byte           23    11 (fixed)
  3583                           ; jumptable            263     9 (fixed)
  3584                           ;	Chosen strategy is simple_byte
  3585     09A0  3A69               	xorlw	105	; case 105
  3586     09A1  1903               	skipnz
  3587     09A2  2977               	goto	l2705
  3588     09A3  3A05               	xorlw	5	; case 108
  3589     09A4  1903               	skipnz
  3590     09A5  298B               	goto	l2707
  3591     09A6  29A7               	goto	l2713
  3592     09A7                     l2713:
  3593                           
  3594                           ;C:\Program Files\Microchip\xc8\v3.00\pic\sources\c99\common\doprnt.c: 1497:    *fmt = c
      +                          p+1;
  3595     09A7  084D               	movf	vfpfcnvrt@fmt,w
  3596     09A8  0084               	movwf	4
  3597     09A9  0857               	movf	vfpfcnvrt@cp,w
  3598     09AA  3E01               	addlw	1
  3599     09AB  0080               	movwf	0
  3600                           
  3601                           ;C:\Program Files\Microchip\xc8\v3.00\pic\sources\c99\common\doprnt.c: 1498:    switch (
      +                          *cp) {
  3602     09AC  29BF               	goto	l2721
  3603     09AD                     l2715:
  3604                           
  3605                           ;C:\Program Files\Microchip\xc8\v3.00\pic\sources\c99\common\doprnt.c: 1542:      return
      +                           (void) utoa(fp, convarg.uint);;	Return value of _vfpfcnvrt is never used
  3606     09AD  084B               	movf	vfpfcnvrt@fp,w
  3607     09AE  00BD               	movwf	utoa@fp
  3608     09AF  084C               	movf	vfpfcnvrt@fp+1,w
  3609     09B0  00BE               	movwf	utoa@fp+1
  3610     09B1  0855               	movf	vfpfcnvrt@convarg+3,w
  3611     09B2  00C2               	movwf	utoa@d+3
  3612     09B3  0854               	movf	vfpfcnvrt@convarg+2,w
  3613     09B4  00C1               	movwf	utoa@d+2
  3614     09B5  0853               	movf	vfpfcnvrt@convarg+1,w
  3615     09B6  00C0               	movwf	utoa@d+1
  3616     09B7  0852               	movf	vfpfcnvrt@convarg,w
  3617     09B8  00BF               	movwf	utoa@d
  3618     09B9  160A  118A  23F0  120A  158A  	fcall	_utoa
  3619     09BE  29EB               	goto	l839
  3620     09BF                     l2721:
  3621     09BF  0857               	movf	vfpfcnvrt@cp,w
  3622     09C0  0084               	movwf	4
  3623     09C1  160A  118A  200A  120A  158A  	fcall	stringdir
  3624                           
  3625                           ; Switch size 1, requested type "simple"
  3626                           ; Number of cases is 1, Range of values is 117 to 117
  3627                           ; switch strategies available:
  3628                           ; Name         Instructions Cycles
  3629                           ; simple_byte            4     3 (average)
  3630                           ; direct_byte           14    11 (fixed)
  3631                           ; jumptable            263     9 (fixed)
  3632                           ;	Chosen strategy is simple_byte
  3633     09C6  3A75               	xorlw	117	; case 117
  3634     09C7  1903               	skipnz
  3635     09C8  29AD               	goto	l2715
  3636     09C9  29CA               	goto	l2723
  3637     09CA                     l2723:
  3638                           
  3639                           ;C:\Program Files\Microchip\xc8\v3.00\pic\sources\c99\common\doprnt.c: 1806:         ++*
      +                          fmt;
  3640     09CA  1283               	bcf	3,5	;RP0=0, select bank0
  3641     09CB  1303               	bcf	3,6	;RP1=0, select bank0
  3642     09CC  084D               	movf	vfpfcnvrt@fmt,w
  3643     09CD  0084               	movwf	4
  3644     09CE  3001               	movlw	1
  3645     09CF  1383               	bcf	3,7	;select IRP bank0
  3646     09D0  0780               	addwf	0,f
  3647     09D1  29EB               	goto	l839
  3648     09D2                     l2727:
  3649                           
  3650                           ;C:\Program Files\Microchip\xc8\v3.00\pic\sources\c99\common\doprnt.c: 1811:     fputc((
      +                          int)(*fmt)[0], fp);
  3651     09D2  084D               	movf	vfpfcnvrt@fmt,w
  3652     09D3  0084               	movwf	4
  3653     09D4  0800               	movf	0,w
  3654     09D5  0084               	movwf	4
  3655     09D6  160A  118A  200A  120A  158A  	fcall	stringdir
  3656     09DB  00CF               	movwf	??_vfpfcnvrt
  3657     09DC  01D0               	clrf	??_vfpfcnvrt+1
  3658     09DD  084F               	movf	??_vfpfcnvrt,w
  3659     09DE  00A0               	movwf	fputc@c
  3660     09DF  0850               	movf	??_vfpfcnvrt+1,w
  3661     09E0  00A1               	movwf	fputc@c+1
  3662     09E1  084B               	movf	vfpfcnvrt@fp,w
  3663     09E2  00A2               	movwf	fputc@fp
  3664     09E3  084C               	movf	vfpfcnvrt@fp+1,w
  3665     09E4  00A3               	movwf	fputc@fp+1
  3666     09E5  160A  118A  251E  120A  158A  	fcall	_fputc
  3667     09EA  29CA               	goto	l2723
  3668     09EB                     l839:
  3669     09EB  0008               	return
  3670     09EC                     __end_of_vfpfcnvrt:
  3671                           
  3672                           	psect	text4
  3673     13F0                     __ptext4:	
  3674 ;; *************** function _utoa *****************
  3675 ;; Defined at:
  3676 ;;		line 1001 in file "C:\Program Files\Microchip\xc8\v3.00\pic\sources\c99\common\doprnt.c"
  3677 ;; Parameters:    Size  Location     Type
  3678 ;;  fp              2   29[BANK0 ] PTR struct _IO_FILE
  3679 ;;		 -> sprintf@f(11), 
  3680 ;;  d               4   31[BANK0 ] unsigned long 
  3681 ;; Auto vars:     Size  Location     Type
  3682 ;;  i               2   38[BANK0 ] int 
  3683 ;;  w               2   36[BANK0 ] int 
  3684 ;;  p               1   35[BANK0 ] _Bool 
  3685 ;; Return value:  Size  Location     Type
  3686 ;;                  1    wreg      void 
  3687 ;; Registers used:
  3688 ;;		wreg, fsr0l, fsr0h, status,2, status,0, btemp+1, pclath, cstack
  3689 ;; Tracked objects:
  3690 ;;		On entry : 0/0
  3691 ;;		On exit  : 0/0
  3692 ;;		Unchanged: 0/0
  3693 ;; Data sizes:     COMMON   BANK0   BANK1   BANK3   BANK2
  3694 ;;      Params:         0       6       0       0       0
  3695 ;;      Locals:         0       5       0       0       0
  3696 ;;      Temps:          0       0       0       0       0
  3697 ;;      Totals:         0      11       0       0       0
  3698 ;;Total ram usage:       11 bytes
  3699 ;; Hardware stack levels used: 1
  3700 ;; Hardware stack levels required when called: 5
  3701 ;; This function calls:
  3702 ;;		___lldiv
  3703 ;;		___llmod
  3704 ;;		_pad
  3705 ;; This function is called by:
  3706 ;;		_vfpfcnvrt
  3707 ;; This function uses a non-reentrant model
  3708 ;;
  3709                           
  3710     13F0                     _utoa:	
  3711                           ;psect for function _utoa
  3712                           
  3713     13F0                     l2569:	
  3714                           ;incstack = 0
  3715 ;; hardware stack exceeded
  3716                           ; Regs used in _utoa: [wreg-fsr0h+status,2+status,0+btemp+1+pclath+cstack]
  3717                           
  3718                           
  3719                           ;C:\Program Files\Microchip\xc8\v3.00\pic\sources\c99\common\doprnt.c: 1001: static void
      +                           utoa(FILE *fp, vfpf_uint_t d);C:\Program Files\Microchip\xc8\v3.00\pic\sources\c99\comm
      +                          on\doprnt.c: 1002: {;C:\Program Files\Microchip\xc8\v3.00\pic\sources\c99\common\doprnt.
      +                          c: 1003:     int i, w;;C:\Program Files\Microchip\xc8\v3.00\pic\sources\c99\common\doprn
      +                          t.c: 1007:  _Bool p = 1;
  3720     13F0  3001               	movlw	1
  3721     13F1  1283               	bcf	3,5	;RP0=0, select bank0
  3722     13F2  1303               	bcf	3,6	;RP1=0, select bank0
  3723     13F3  00C3               	movwf	utoa@p
  3724     13F4                     l2571:
  3725                           
  3726                           ;C:\Program Files\Microchip\xc8\v3.00\pic\sources\c99\common\doprnt.c: 1019:     w = wid
      +                          th;
  3727     13F4  0879               	movf	_width+1,w
  3728     13F5  00C5               	movwf	utoa@w+1
  3729     13F6  0878               	movf	_width,w
  3730     13F7  00C4               	movwf	utoa@w
  3731                           
  3732                           ;C:\Program Files\Microchip\xc8\v3.00\pic\sources\c99\common\doprnt.c: 1022:     i = siz
      +                          eof(dbuf) - 1;
  3733     13F8  301F               	movlw	31
  3734     13F9  00C6               	movwf	utoa@i
  3735     13FA  3000               	movlw	0
  3736     13FB  00C7               	movwf	utoa@i+1
  3737     13FC                     l2573:
  3738                           
  3739                           ;C:\Program Files\Microchip\xc8\v3.00\pic\sources\c99\common\doprnt.c: 1023:     dbuf[i]
      +                           = '\0';
  3740     13FC  1683               	bsf	3,5	;RP0=1, select bank3
  3741     13FD  1703               	bsf	3,6	;RP1=1, select bank3
  3742     13FE  01AF               	clrf	(_dbuf^(0+384)+31)
  3743                           
  3744                           ;C:\Program Files\Microchip\xc8\v3.00\pic\sources\c99\common\doprnt.c: 1024:     while (
      +                          i && (d != 0
  3745     13FF  2C4C               	goto	l2585
  3746     1400                     l2575:
  3747                           
  3748                           ;C:\Program Files\Microchip\xc8\v3.00\pic\sources\c99\common\doprnt.c: 1033:     )) {;C:
      +                          \Program Files\Microchip\xc8\v3.00\pic\sources\c99\common\doprnt.c: 1034:         --i;
  3749     1400  30FF               	movlw	255
  3750     1401  1283               	bcf	3,5	;RP0=0, select bank0
  3751     1402  1303               	bcf	3,6	;RP1=0, select bank0
  3752     1403  07C6               	addwf	utoa@i,f
  3753     1404  1803               	skipnc
  3754     1405  0AC7               	incf	utoa@i+1,f
  3755     1406  30FF               	movlw	255
  3756     1407  07C7               	addwf	utoa@i+1,f
  3757     1408                     l2577:
  3758                           
  3759                           ;C:\Program Files\Microchip\xc8\v3.00\pic\sources\c99\common\doprnt.c: 1035:         dbu
      +                          f[i] = '0' + (d % 10);
  3760     1408  0846               	movf	utoa@i,w
  3761     1409  3E90               	addlw	(low (_dbuf| (0+256)))& (0+255)
  3762     140A  0084               	movwf	4
  3763     140B  3000               	movlw	0
  3764     140C  00A3               	movwf	___llmod@divisor+3
  3765     140D  3000               	movlw	0
  3766     140E  00A2               	movwf	___llmod@divisor+2
  3767     140F  3000               	movlw	0
  3768     1410  00A1               	movwf	___llmod@divisor+1
  3769     1411  300A               	movlw	10
  3770     1412  00A0               	movwf	___llmod@divisor
  3771     1413  0842               	movf	utoa@d+3,w
  3772     1414  00A7               	movwf	___llmod@dividend+3
  3773     1415  0841               	movf	utoa@d+2,w
  3774     1416  00A6               	movwf	___llmod@dividend+2
  3775     1417  0840               	movf	utoa@d+1,w
  3776     1418  00A5               	movwf	___llmod@dividend+1
  3777     1419  083F               	movf	utoa@d,w
  3778     141A  00A4               	movwf	___llmod@dividend
  3779     141B  160A  118A  2163  160A  118A  	fcall	___llmod
  3780     1420  1283               	bcf	3,5	;RP0=0, select bank0
  3781     1421  1303               	bcf	3,6	;RP1=0, select bank0
  3782     1422  0820               	movf	?___llmod,w
  3783     1423  3E30               	addlw	48
  3784     1424  1783               	bsf	3,7	;select IRP bank3
  3785     1425  0080               	movwf	0
  3786     1426                     l2579:
  3787                           
  3788                           ;C:\Program Files\Microchip\xc8\v3.00\pic\sources\c99\common\doprnt.c: 1039:   p = 0;
  3789     1426  01C3               	clrf	utoa@p
  3790     1427                     l2581:
  3791                           
  3792                           ;C:\Program Files\Microchip\xc8\v3.00\pic\sources\c99\common\doprnt.c: 1041:         --w
      +                          ;
  3793     1427  30FF               	movlw	255
  3794     1428  07C4               	addwf	utoa@w,f
  3795     1429  1803               	skipnc
  3796     142A  0AC5               	incf	utoa@w+1,f
  3797     142B  30FF               	movlw	255
  3798     142C  07C5               	addwf	utoa@w+1,f
  3799     142D                     l2583:
  3800                           
  3801                           ;C:\Program Files\Microchip\xc8\v3.00\pic\sources\c99\common\doprnt.c: 1042:         d =
      +                           d / 10;
  3802     142D  3000               	movlw	0
  3803     142E  00B0               	movwf	___lldiv@divisor+3
  3804     142F  3000               	movlw	0
  3805     1430  00AF               	movwf	___lldiv@divisor+2
  3806     1431  3000               	movlw	0
  3807     1432  00AE               	movwf	___lldiv@divisor+1
  3808     1433  300A               	movlw	10
  3809     1434  00AD               	movwf	___lldiv@divisor
  3810     1435  0842               	movf	utoa@d+3,w
  3811     1436  00B4               	movwf	___lldiv@dividend+3
  3812     1437  0841               	movf	utoa@d+2,w
  3813     1438  00B3               	movwf	___lldiv@dividend+2
  3814     1439  0840               	movf	utoa@d+1,w
  3815     143A  00B2               	movwf	___lldiv@dividend+1
  3816     143B  083F               	movf	utoa@d,w
  3817     143C  00B1               	movwf	___lldiv@dividend
  3818     143D  160A  118A  221C  160A  118A  	fcall	___lldiv
  3819     1442  1283               	bcf	3,5	;RP0=0, select bank0
  3820     1443  1303               	bcf	3,6	;RP1=0, select bank0
  3821     1444  0830               	movf	?___lldiv+3,w
  3822     1445  00C2               	movwf	utoa@d+3
  3823     1446  082F               	movf	?___lldiv+2,w
  3824     1447  00C1               	movwf	utoa@d+2
  3825     1448  082E               	movf	?___lldiv+1,w
  3826     1449  00C0               	movwf	utoa@d+1
  3827     144A  082D               	movf	?___lldiv,w
  3828     144B  00BF               	movwf	utoa@d
  3829     144C                     l2585:
  3830                           
  3831                           ;C:\Program Files\Microchip\xc8\v3.00\pic\sources\c99\common\doprnt.c: 1024:     while (
      +                          i && (d != 0
  3832     144C  1283               	bcf	3,5	;RP0=0, select bank0
  3833     144D  1303               	bcf	3,6	;RP1=0, select bank0
  3834     144E  0846               	movf	utoa@i,w
  3835     144F  0447               	iorwf	utoa@i+1,w
  3836     1450  1903               	btfsc	3,2
  3837     1451  2C53               	goto	u3221
  3838     1452  2C54               	goto	u3220
  3839     1453                     u3221:
  3840     1453  2C72               	goto	l2595
  3841     1454                     u3220:
  3842     1454                     l2587:
  3843     1454  0842               	movf	utoa@d+3,w
  3844     1455  0441               	iorwf	utoa@d+2,w
  3845     1456  0440               	iorwf	utoa@d+1,w
  3846     1457  043F               	iorwf	utoa@d,w
  3847     1458  1D03               	skipz
  3848     1459  2C5B               	goto	u3231
  3849     145A  2C5C               	goto	u3230
  3850     145B                     u3231:
  3851     145B  2C00               	goto	l2575
  3852     145C                     u3230:
  3853     145C                     l2589:
  3854     145C  0843               	movf	utoa@p,w
  3855     145D  1D03               	btfss	3,2
  3856     145E  2C60               	goto	u3241
  3857     145F  2C61               	goto	u3240
  3858     1460                     u3241:
  3859     1460  2C00               	goto	l2575
  3860     1461                     u3240:
  3861     1461                     l2591:
  3862     1461  0845               	movf	utoa@w+1,w
  3863     1462  3A80               	xorlw	128
  3864     1463  00FF               	movwf	btemp+1
  3865     1464  3080               	movlw	128
  3866     1465  027F               	subwf	btemp+1,w
  3867     1466  1D03               	skipz
  3868     1467  2C6A               	goto	u3255
  3869     1468  3001               	movlw	1
  3870     1469  0244               	subwf	utoa@w,w
  3871     146A                     u3255:
  3872     146A  1C03               	skipc
  3873     146B  2C6D               	goto	u3251
  3874     146C  2C6E               	goto	u3250
  3875     146D                     u3251:
  3876     146D  2C72               	goto	l2595
  3877     146E                     u3250:
  3878     146E                     l2593:
  3879     146E  18FC               	btfsc	_flags,1
  3880     146F  2C71               	goto	u3261
  3881     1470  2C72               	goto	u3260
  3882     1471                     u3261:
  3883     1471  2C00               	goto	l2575
  3884     1472                     u3260:
  3885     1472                     l2595:
  3886                           
  3887                           ;C:\Program Files\Microchip\xc8\v3.00\pic\sources\c99\common\doprnt.c: 1046:     return 
      +                          (void) pad(fp, &dbuf[i], w);
  3888     1472  1283               	bcf	3,5	;RP0=0, select bank0
  3889     1473  1303               	bcf	3,6	;RP1=0, select bank0
  3890     1474  083D               	movf	utoa@fp,w
  3891     1475  00B5               	movwf	pad@fp
  3892     1476  083E               	movf	utoa@fp+1,w
  3893     1477  00B6               	movwf	pad@fp+1
  3894     1478  0846               	movf	utoa@i,w
  3895     1479  3E90               	addlw	(low (_dbuf| (0+256)))& (0+255)
  3896     147A  00B7               	movwf	pad@buf
  3897     147B  0845               	movf	utoa@w+1,w
  3898     147C  00B9               	movwf	pad@p+1
  3899     147D  0844               	movf	utoa@w,w
  3900     147E  00B8               	movwf	pad@p
  3901     147F  160A  118A  20BC  160A  118A  	fcall	_pad
  3902     1484                     l818:
  3903     1484  0008               	return
  3904     1485                     __end_of_utoa:
  3905                           
  3906                           	psect	text5
  3907     1163                     __ptext5:	
  3908 ;; *************** function ___llmod *****************
  3909 ;; Defined at:
  3910 ;;		line 5 in file "C:\Program Files\Microchip\xc8\v3.00\pic\sources\c99\common\llmod.c"
  3911 ;; Parameters:    Size  Location     Type
  3912 ;;  divisor         4    0[BANK0 ] unsigned long 
  3913 ;;  dividend        4    4[BANK0 ] unsigned long 
  3914 ;; Auto vars:     Size  Location     Type
  3915 ;;  counter         1    9[BANK0 ] unsigned char 
  3916 ;; Return value:  Size  Location     Type
  3917 ;;                  4    0[BANK0 ] unsigned long 
  3918 ;; Registers used:
  3919 ;;		wreg, status,2, status,0
  3920 ;; Tracked objects:
  3921 ;;		On entry : 0/0
  3922 ;;		On exit  : 0/0
  3923 ;;		Unchanged: 0/0
  3924 ;; Data sizes:     COMMON   BANK0   BANK1   BANK3   BANK2
  3925 ;;      Params:         0       8       0       0       0
  3926 ;;      Locals:         0       1       0       0       0
  3927 ;;      Temps:          0       1       0       0       0
  3928 ;;      Totals:         0      10       0       0       0
  3929 ;;Total ram usage:       10 bytes
  3930 ;; Hardware stack levels used: 1
  3931 ;; Hardware stack levels required when called: 1
  3932 ;; This function calls:
  3933 ;;		Nothing
  3934 ;; This function is called by:
  3935 ;;		_utoa
  3936 ;; This function uses a non-reentrant model
  3937 ;;
  3938                           
  3939     1163                     ___llmod:	
  3940                           ;psect for function ___llmod
  3941                           
  3942     1163                     l2455:	
  3943                           ;incstack = 0
  3944                           ; Regs used in ___llmod: [wreg+status,2+status,0]
  3945                           
  3946     1163  1283               	bcf	3,5	;RP0=0, select bank0
  3947     1164  1303               	bcf	3,6	;RP1=0, select bank0
  3948     1165  0823               	movf	___llmod@divisor+3,w
  3949     1166  0422               	iorwf	___llmod@divisor+2,w
  3950     1167  0421               	iorwf	___llmod@divisor+1,w
  3951     1168  0420               	iorwf	___llmod@divisor,w
  3952     1169  1903               	skipnz
  3953     116A  296C               	goto	u2961
  3954     116B  296D               	goto	u2960
  3955     116C                     u2961:
  3956     116C  29AE               	goto	l2471
  3957     116D                     u2960:
  3958     116D                     l2457:
  3959     116D  3001               	movlw	1
  3960     116E  00A9               	movwf	___llmod@counter
  3961     116F  297B               	goto	l2461
  3962     1170                     l2459:
  3963     1170  3001               	movlw	1
  3964     1171  00A8               	movwf	??___llmod
  3965     1172                     u2975:
  3966     1172  1003               	clrc
  3967     1173  0DA0               	rlf	___llmod@divisor,f
  3968     1174  0DA1               	rlf	___llmod@divisor+1,f
  3969     1175  0DA2               	rlf	___llmod@divisor+2,f
  3970     1176  0DA3               	rlf	___llmod@divisor+3,f
  3971     1177  0BA8               	decfsz	??___llmod,f
  3972     1178  2972               	goto	u2975
  3973     1179  3001               	movlw	1
  3974     117A  07A9               	addwf	___llmod@counter,f
  3975     117B                     l2461:
  3976     117B  1FA3               	btfss	___llmod@divisor+3,7
  3977     117C  297E               	goto	u2981
  3978     117D  297F               	goto	u2980
  3979     117E                     u2981:
  3980     117E  2970               	goto	l2459
  3981     117F                     u2980:
  3982     117F                     l2463:
  3983     117F  0823               	movf	___llmod@divisor+3,w
  3984     1180  0227               	subwf	___llmod@dividend+3,w
  3985     1181  1D03               	skipz
  3986     1182  298D               	goto	u2995
  3987     1183  0822               	movf	___llmod@divisor+2,w
  3988     1184  0226               	subwf	___llmod@dividend+2,w
  3989     1185  1D03               	skipz
  3990     1186  298D               	goto	u2995
  3991     1187  0821               	movf	___llmod@divisor+1,w
  3992     1188  0225               	subwf	___llmod@dividend+1,w
  3993     1189  1D03               	skipz
  3994     118A  298D               	goto	u2995
  3995     118B  0820               	movf	___llmod@divisor,w
  3996     118C  0224               	subwf	___llmod@dividend,w
  3997     118D                     u2995:
  3998     118D  1C03               	skipc
  3999     118E  2990               	goto	u2991
  4000     118F  2991               	goto	u2990
  4001     1190                     u2991:
  4002     1190  299F               	goto	l2467
  4003     1191                     u2990:
  4004     1191                     l2465:
  4005     1191  0820               	movf	___llmod@divisor,w
  4006     1192  02A4               	subwf	___llmod@dividend,f
  4007     1193  0821               	movf	___llmod@divisor+1,w
  4008     1194  1C03               	skipc
  4009     1195  0F21               	incfsz	___llmod@divisor+1,w
  4010     1196  02A5               	subwf	___llmod@dividend+1,f
  4011     1197  0822               	movf	___llmod@divisor+2,w
  4012     1198  1C03               	skipc
  4013     1199  0F22               	incfsz	___llmod@divisor+2,w
  4014     119A  02A6               	subwf	___llmod@dividend+2,f
  4015     119B  0823               	movf	___llmod@divisor+3,w
  4016     119C  1C03               	skipc
  4017     119D  0F23               	incfsz	___llmod@divisor+3,w
  4018     119E  02A7               	subwf	___llmod@dividend+3,f
  4019     119F                     l2467:
  4020     119F  3001               	movlw	1
  4021     11A0                     u3005:
  4022     11A0  1003               	clrc
  4023     11A1  0CA3               	rrf	___llmod@divisor+3,f
  4024     11A2  0CA2               	rrf	___llmod@divisor+2,f
  4025     11A3  0CA1               	rrf	___llmod@divisor+1,f
  4026     11A4  0CA0               	rrf	___llmod@divisor,f
  4027     11A5  3EFF               	addlw	-1
  4028     11A6  1D03               	skipz
  4029     11A7  29A0               	goto	u3005
  4030     11A8                     l2469:
  4031     11A8  3001               	movlw	1
  4032     11A9  02A9               	subwf	___llmod@counter,f
  4033     11AA  1D03               	btfss	3,2
  4034     11AB  29AD               	goto	u3011
  4035     11AC  29AE               	goto	u3010
  4036     11AD                     u3011:
  4037     11AD  297F               	goto	l2463
  4038     11AE                     u3010:
  4039     11AE                     l2471:
  4040     11AE  0827               	movf	___llmod@dividend+3,w
  4041     11AF  00A3               	movwf	?___llmod+3
  4042     11B0  0826               	movf	___llmod@dividend+2,w
  4043     11B1  00A2               	movwf	?___llmod+2
  4044     11B2  0825               	movf	___llmod@dividend+1,w
  4045     11B3  00A1               	movwf	?___llmod+1
  4046     11B4  0824               	movf	___llmod@dividend,w
  4047     11B5  00A0               	movwf	?___llmod
  4048     11B6                     l518:
  4049     11B6  0008               	return
  4050     11B7                     __end_of___llmod:
  4051                           
  4052                           	psect	text6
  4053     121C                     __ptext6:	
  4054 ;; *************** function ___lldiv *****************
  4055 ;; Defined at:
  4056 ;;		line 5 in file "C:\Program Files\Microchip\xc8\v3.00\pic\sources\c99\common\__lldiv.c"
  4057 ;; Parameters:    Size  Location     Type
  4058 ;;  divisor         4   13[BANK0 ] unsigned long 
  4059 ;;  dividend        4   17[BANK0 ] unsigned long 
  4060 ;; Auto vars:     Size  Location     Type
  4061 ;;  quotient        4   22[BANK0 ] unsigned long 
  4062 ;;  counter         1   26[BANK0 ] unsigned char 
  4063 ;; Return value:  Size  Location     Type
  4064 ;;                  4   13[BANK0 ] unsigned long 
  4065 ;; Registers used:
  4066 ;;		wreg, status,2, status,0
  4067 ;; Tracked objects:
  4068 ;;		On entry : 0/0
  4069 ;;		On exit  : 0/0
  4070 ;;		Unchanged: 0/0
  4071 ;; Data sizes:     COMMON   BANK0   BANK1   BANK3   BANK2
  4072 ;;      Params:         0       8       0       0       0
  4073 ;;      Locals:         0       5       0       0       0
  4074 ;;      Temps:          0       1       0       0       0
  4075 ;;      Totals:         0      14       0       0       0
  4076 ;;Total ram usage:       14 bytes
  4077 ;; Hardware stack levels used: 1
  4078 ;; Hardware stack levels required when called: 1
  4079 ;; This function calls:
  4080 ;;		Nothing
  4081 ;; This function is called by:
  4082 ;;		_main
  4083 ;;		_utoa
  4084 ;; This function uses a non-reentrant model
  4085 ;;
  4086                           
  4087     121C                     ___lldiv:	
  4088                           ;psect for function ___lldiv
  4089                           
  4090     121C                     l2359:	
  4091                           ;incstack = 0
  4092                           ; Regs used in ___lldiv: [wreg+status,2+status,0]
  4093                           
  4094     121C  3000               	movlw	0
  4095     121D  1283               	bcf	3,5	;RP0=0, select bank0
  4096     121E  1303               	bcf	3,6	;RP1=0, select bank0
  4097     121F  00B9               	movwf	___lldiv@quotient+3
  4098     1220  3000               	movlw	0
  4099     1221  00B8               	movwf	___lldiv@quotient+2
  4100     1222  3000               	movlw	0
  4101     1223  00B7               	movwf	___lldiv@quotient+1
  4102     1224  3000               	movlw	0
  4103     1225  00B6               	movwf	___lldiv@quotient
  4104     1226  0830               	movf	___lldiv@divisor+3,w
  4105     1227  042F               	iorwf	___lldiv@divisor+2,w
  4106     1228  042E               	iorwf	___lldiv@divisor+1,w
  4107     1229  042D               	iorwf	___lldiv@divisor,w
  4108     122A  1903               	skipnz
  4109     122B  2A2D               	goto	u2701
  4110     122C  2A2E               	goto	u2700
  4111     122D                     u2701:
  4112     122D  2A79               	goto	l2379
  4113     122E                     u2700:
  4114     122E                     l2361:
  4115     122E  3001               	movlw	1
  4116     122F  00BA               	movwf	___lldiv@counter
  4117     1230  2A3C               	goto	l2365
  4118     1231                     l2363:
  4119     1231  3001               	movlw	1
  4120     1232  00B5               	movwf	??___lldiv
  4121     1233                     u2715:
  4122     1233  1003               	clrc
  4123     1234  0DAD               	rlf	___lldiv@divisor,f
  4124     1235  0DAE               	rlf	___lldiv@divisor+1,f
  4125     1236  0DAF               	rlf	___lldiv@divisor+2,f
  4126     1237  0DB0               	rlf	___lldiv@divisor+3,f
  4127     1238  0BB5               	decfsz	??___lldiv,f
  4128     1239  2A33               	goto	u2715
  4129     123A  3001               	movlw	1
  4130     123B  07BA               	addwf	___lldiv@counter,f
  4131     123C                     l2365:
  4132     123C  1FB0               	btfss	___lldiv@divisor+3,7
  4133     123D  2A3F               	goto	u2721
  4134     123E  2A40               	goto	u2720
  4135     123F                     u2721:
  4136     123F  2A31               	goto	l2363
  4137     1240                     u2720:
  4138     1240                     l2367:
  4139     1240  3001               	movlw	1
  4140     1241  00B5               	movwf	??___lldiv
  4141     1242                     u2735:
  4142     1242  1003               	clrc
  4143     1243  0DB6               	rlf	___lldiv@quotient,f
  4144     1244  0DB7               	rlf	___lldiv@quotient+1,f
  4145     1245  0DB8               	rlf	___lldiv@quotient+2,f
  4146     1246  0DB9               	rlf	___lldiv@quotient+3,f
  4147     1247  0BB5               	decfsz	??___lldiv,f
  4148     1248  2A42               	goto	u2735
  4149     1249                     l2369:
  4150     1249  0830               	movf	___lldiv@divisor+3,w
  4151     124A  0234               	subwf	___lldiv@dividend+3,w
  4152     124B  1D03               	skipz
  4153     124C  2A57               	goto	u2745
  4154     124D  082F               	movf	___lldiv@divisor+2,w
  4155     124E  0233               	subwf	___lldiv@dividend+2,w
  4156     124F  1D03               	skipz
  4157     1250  2A57               	goto	u2745
  4158     1251  082E               	movf	___lldiv@divisor+1,w
  4159     1252  0232               	subwf	___lldiv@dividend+1,w
  4160     1253  1D03               	skipz
  4161     1254  2A57               	goto	u2745
  4162     1255  082D               	movf	___lldiv@divisor,w
  4163     1256  0231               	subwf	___lldiv@dividend,w
  4164     1257                     u2745:
  4165     1257  1C03               	skipc
  4166     1258  2A5A               	goto	u2741
  4167     1259  2A5B               	goto	u2740
  4168     125A                     u2741:
  4169     125A  2A6A               	goto	l2375
  4170     125B                     u2740:
  4171     125B                     l2371:
  4172     125B  082D               	movf	___lldiv@divisor,w
  4173     125C  02B1               	subwf	___lldiv@dividend,f
  4174     125D  082E               	movf	___lldiv@divisor+1,w
  4175     125E  1C03               	skipc
  4176     125F  0F2E               	incfsz	___lldiv@divisor+1,w
  4177     1260  02B2               	subwf	___lldiv@dividend+1,f
  4178     1261  082F               	movf	___lldiv@divisor+2,w
  4179     1262  1C03               	skipc
  4180     1263  0F2F               	incfsz	___lldiv@divisor+2,w
  4181     1264  02B3               	subwf	___lldiv@dividend+2,f
  4182     1265  0830               	movf	___lldiv@divisor+3,w
  4183     1266  1C03               	skipc
  4184     1267  0F30               	incfsz	___lldiv@divisor+3,w
  4185     1268  02B4               	subwf	___lldiv@dividend+3,f
  4186     1269                     l2373:
  4187     1269  1436               	bsf	___lldiv@quotient,0
  4188     126A                     l2375:
  4189     126A  3001               	movlw	1
  4190     126B                     u2755:
  4191     126B  1003               	clrc
  4192     126C  0CB0               	rrf	___lldiv@divisor+3,f
  4193     126D  0CAF               	rrf	___lldiv@divisor+2,f
  4194     126E  0CAE               	rrf	___lldiv@divisor+1,f
  4195     126F  0CAD               	rrf	___lldiv@divisor,f
  4196     1270  3EFF               	addlw	-1
  4197     1271  1D03               	skipz
  4198     1272  2A6B               	goto	u2755
  4199     1273                     l2377:
  4200     1273  3001               	movlw	1
  4201     1274  02BA               	subwf	___lldiv@counter,f
  4202     1275  1D03               	btfss	3,2
  4203     1276  2A78               	goto	u2761
  4204     1277  2A79               	goto	u2760
  4205     1278                     u2761:
  4206     1278  2A40               	goto	l2367
  4207     1279                     u2760:
  4208     1279                     l2379:
  4209     1279  0839               	movf	___lldiv@quotient+3,w
  4210     127A  00B0               	movwf	?___lldiv+3
  4211     127B  0838               	movf	___lldiv@quotient+2,w
  4212     127C  00AF               	movwf	?___lldiv+2
  4213     127D  0837               	movf	___lldiv@quotient+1,w
  4214     127E  00AE               	movwf	?___lldiv+1
  4215     127F  0836               	movf	___lldiv@quotient,w
  4216     1280  00AD               	movwf	?___lldiv
  4217     1281                     l324:
  4218     1281  0008               	return
  4219     1282                     __end_of___lldiv:
  4220                           
  4221                           	psect	text7
  4222     080D                     __ptext7:	
  4223 ;; *************** function _read_prec_or_width *****************
  4224 ;; Defined at:
  4225 ;;		line 1158 in file "C:\Program Files\Microchip\xc8\v3.00\pic\sources\c99\common\doprnt.c"
  4226 ;; Parameters:    Size  Location     Type
  4227 ;;  fmt             1   20[BANK0 ] PTR PTR const unsigned c
  4228 ;;		 -> vfprintf@cfmt(1), 
  4229 ;;  ap              1   21[BANK0 ] PTR PTR void [1]
  4230 ;;		 -> sprintf@ap(1), 
  4231 ;; Auto vars:     Size  Location     Type
  4232 ;;  c               1   22[BANK0 ] unsigned char 
  4233 ;;  n               2   23[BANK0 ] int 
  4234 ;; Return value:  Size  Location     Type
  4235 ;;                  2   20[BANK0 ] int 
  4236 ;; Registers used:
  4237 ;;		wreg, fsr0l, fsr0h, status,2, status,0, btemp+1, pclath, cstack
  4238 ;; Tracked objects:
  4239 ;;		On entry : 0/0
  4240 ;;		On exit  : 0/0
  4241 ;;		Unchanged: 0/0
  4242 ;; Data sizes:     COMMON   BANK0   BANK1   BANK3   BANK2
  4243 ;;      Params:         0       2       0       0       0
  4244 ;;      Locals:         0       3       0       0       0
  4245 ;;      Temps:          0       0       0       0       0
  4246 ;;      Totals:         0       5       0       0       0
  4247 ;;Total ram usage:        5 bytes
  4248 ;; Hardware stack levels used: 1
  4249 ;; Hardware stack levels required when called: 2
  4250 ;; This function calls:
  4251 ;;		___wmul
  4252 ;; This function is called by:
  4253 ;;		_vfpfcnvrt
  4254 ;; This function uses a non-reentrant model
  4255 ;;
  4256                           
  4257     080D                     _read_prec_or_width:	
  4258                           ;psect for function _read_prec_or_width
  4259                           
  4260     080D                     l2599:	
  4261                           ;incstack = 0
  4262                           ; Regs used in _read_prec_or_width: [wreg-fsr0h+status,2+status,0+btemp+1+pclath+cstack]
  4263                           
  4264                           
  4265                           ;C:\Program Files\Microchip\xc8\v3.00\pic\sources\c99\common\doprnt.c: 1159:     int n =
      +                           0;
  4266     080D  1283               	bcf	3,5	;RP0=0, select bank0
  4267     080E  1303               	bcf	3,6	;RP1=0, select bank0
  4268     080F  01B7               	clrf	read_prec_or_width@n
  4269     0810  01B8               	clrf	read_prec_or_width@n+1
  4270     0811                     l2601:
  4271                           
  4272                           ;C:\Program Files\Microchip\xc8\v3.00\pic\sources\c99\common\doprnt.c: 1160:     if ((*f
      +                          mt)[0] == '*') {
  4273     0811  0834               	movf	read_prec_or_width@fmt,w
  4274     0812  0084               	movwf	4
  4275     0813  1383               	bcf	3,7	;select IRP bank0
  4276     0814  0800               	movf	0,w
  4277     0815  0084               	movwf	4
  4278     0816  160A  118A  200A  120A  158A  	fcall	stringdir
  4279     081B  3A2A               	xorlw	42
  4280     081C  1D03               	skipz
  4281     081D  281F               	goto	u3271
  4282     081E  2820               	goto	u3270
  4283     081F                     u3271:
  4284     081F  284E               	goto	l2611
  4285     0820                     u3270:
  4286     0820                     l2603:
  4287                           
  4288                           ;C:\Program Files\Microchip\xc8\v3.00\pic\sources\c99\common\doprnt.c: 1161:         ++*
      +                          fmt;
  4289     0820  0834               	movf	read_prec_or_width@fmt,w
  4290     0821  0084               	movwf	4
  4291     0822  3001               	movlw	1
  4292     0823  0780               	addwf	0,f
  4293     0824                     l2605:
  4294                           
  4295                           ;C:\Program Files\Microchip\xc8\v3.00\pic\sources\c99\common\doprnt.c: 1162:         n =
      +                           (*(int *)__va_arg(*(int **)*ap, (int)0));
  4296     0824  0835               	movf	read_prec_or_width@ap,w
  4297     0825  0084               	movwf	4
  4298     0826  0800               	movf	0,w
  4299     0827  00FF               	movwf	btemp+1
  4300     0828  3002               	movlw	2
  4301     0829  0780               	addwf	0,f
  4302     082A  087F               	movf	btemp+1,w
  4303     082B  0084               	movwf	4
  4304     082C  0800               	movf	0,w
  4305     082D  00B7               	movwf	read_prec_or_width@n
  4306     082E  0A84               	incf	4,f
  4307     082F  0800               	movf	0,w
  4308     0830  00B8               	movwf	read_prec_or_width@n+1
  4309                           
  4310                           ;C:\Program Files\Microchip\xc8\v3.00\pic\sources\c99\common\doprnt.c: 1163:     } else 
      +                          {
  4311     0831  285F               	goto	l2613
  4312     0832                     l2607:
  4313                           
  4314                           ;C:\Program Files\Microchip\xc8\v3.00\pic\sources\c99\common\doprnt.c: 1166:            
      +                           n = n * 10 + c;
  4315     0832  0838               	movf	read_prec_or_width@n+1,w
  4316     0833  00AF               	movwf	___wmul@multiplier+1
  4317     0834  0837               	movf	read_prec_or_width@n,w
  4318     0835  00AE               	movwf	___wmul@multiplier
  4319     0836  300A               	movlw	10
  4320     0837  00B0               	movwf	___wmul@multiplicand
  4321     0838  3000               	movlw	0
  4322     0839  00B1               	movwf	___wmul@multiplicand+1
  4323     083A  160A  158A  269D  120A  158A  	fcall	___wmul
  4324     083F  1283               	bcf	3,5	;RP0=0, select bank0
  4325     0840  1303               	bcf	3,6	;RP1=0, select bank0
  4326     0841  0836               	movf	read_prec_or_width@c,w
  4327     0842  072E               	addwf	?___wmul,w
  4328     0843  00B7               	movwf	read_prec_or_width@n
  4329     0844  3000               	movlw	0
  4330     0845  1803               	skipnc
  4331     0846  3001               	movlw	1
  4332     0847  072F               	addwf	?___wmul+1,w
  4333     0848  00B8               	movwf	read_prec_or_width@n+1
  4334     0849                     l2609:
  4335                           
  4336                           ;C:\Program Files\Microchip\xc8\v3.00\pic\sources\c99\common\doprnt.c: 1167:            
      +                           ++*fmt;
  4337     0849  0834               	movf	read_prec_or_width@fmt,w
  4338     084A  0084               	movwf	4
  4339     084B  3001               	movlw	1
  4340     084C  1383               	bcf	3,7	;select IRP bank0
  4341     084D  0780               	addwf	0,f
  4342     084E                     l2611:
  4343                           
  4344                           ;C:\Program Files\Microchip\xc8\v3.00\pic\sources\c99\common\doprnt.c: 1165:         whi
      +                          le ((c = ((unsigned)(*fmt)[0]) - '0') < 10) {
  4345     084E  0834               	movf	read_prec_or_width@fmt,w
  4346     084F  0084               	movwf	4
  4347     0850  0800               	movf	0,w
  4348     0851  0084               	movwf	4
  4349     0852  160A  118A  200A  120A  158A  	fcall	stringdir
  4350     0857  3ED0               	addlw	208
  4351     0858  00B6               	movwf	read_prec_or_width@c
  4352     0859  300A               	movlw	10
  4353     085A  0236               	subwf	read_prec_or_width@c,w
  4354     085B  1C03               	skipc
  4355     085C  285E               	goto	u3281
  4356     085D  285F               	goto	u3280
  4357     085E                     u3281:
  4358     085E  2832               	goto	l2607
  4359     085F                     u3280:
  4360     085F                     l2613:
  4361                           
  4362                           ;C:\Program Files\Microchip\xc8\v3.00\pic\sources\c99\common\doprnt.c: 1170:     return 
      +                          n;
  4363     085F  0838               	movf	read_prec_or_width@n+1,w
  4364     0860  00B5               	movwf	?_read_prec_or_width+1
  4365     0861  0837               	movf	read_prec_or_width@n,w
  4366     0862  00B4               	movwf	?_read_prec_or_width
  4367     0863                     l826:
  4368     0863  0008               	return
  4369     0864                     __end_of_read_prec_or_width:
  4370                           
  4371                           	psect	text8
  4372     1E9D                     __ptext8:	
  4373 ;; *************** function ___wmul *****************
  4374 ;; Defined at:
  4375 ;;		line 15 in file "C:\Program Files\Microchip\xc8\v3.00\pic\sources\c99\common\Umul16.c"
  4376 ;; Parameters:    Size  Location     Type
  4377 ;;  multiplier      2   14[BANK0 ] unsigned int 
  4378 ;;  multiplicand    2   16[BANK0 ] unsigned int 
  4379 ;; Auto vars:     Size  Location     Type
  4380 ;;  product         2   18[BANK0 ] unsigned int 
  4381 ;; Return value:  Size  Location     Type
  4382 ;;                  2   14[BANK0 ] unsigned int 
  4383 ;; Registers used:
  4384 ;;		wreg, status,2, status,0
  4385 ;; Tracked objects:
  4386 ;;		On entry : 0/0
  4387 ;;		On exit  : 0/0
  4388 ;;		Unchanged: 0/0
  4389 ;; Data sizes:     COMMON   BANK0   BANK1   BANK3   BANK2
  4390 ;;      Params:         0       4       0       0       0
  4391 ;;      Locals:         0       2       0       0       0
  4392 ;;      Temps:          0       0       0       0       0
  4393 ;;      Totals:         0       6       0       0       0
  4394 ;;Total ram usage:        6 bytes
  4395 ;; Hardware stack levels used: 1
  4396 ;; Hardware stack levels required when called: 1
  4397 ;; This function calls:
  4398 ;;		Nothing
  4399 ;; This function is called by:
  4400 ;;		_main
  4401 ;;		_read_prec_or_width
  4402 ;; This function uses a non-reentrant model
  4403 ;;
  4404                           
  4405     1E9D                     ___wmul:	
  4406                           ;psect for function ___wmul
  4407                           
  4408     1E9D                     l2345:	
  4409                           ;incstack = 0
  4410                           ; Regs used in ___wmul: [wreg+status,2+status,0]
  4411                           
  4412     1E9D  1283               	bcf	3,5	;RP0=0, select bank0
  4413     1E9E  1303               	bcf	3,6	;RP1=0, select bank0
  4414     1E9F  01B2               	clrf	___wmul@product
  4415     1EA0  01B3               	clrf	___wmul@product+1
  4416     1EA1                     l2347:
  4417     1EA1  1C2E               	btfss	___wmul@multiplier,0
  4418     1EA2  2EA4               	goto	u2661
  4419     1EA3  2EA5               	goto	u2660
  4420     1EA4                     u2661:
  4421     1EA4  2EAB               	goto	l288
  4422     1EA5                     u2660:
  4423     1EA5                     l2349:
  4424     1EA5  0830               	movf	___wmul@multiplicand,w
  4425     1EA6  07B2               	addwf	___wmul@product,f
  4426     1EA7  1803               	skipnc
  4427     1EA8  0AB3               	incf	___wmul@product+1,f
  4428     1EA9  0831               	movf	___wmul@multiplicand+1,w
  4429     1EAA  07B3               	addwf	___wmul@product+1,f
  4430     1EAB                     l288:
  4431     1EAB  3001               	movlw	1
  4432     1EAC                     u2675:
  4433     1EAC  1003               	clrc
  4434     1EAD  0DB0               	rlf	___wmul@multiplicand,f
  4435     1EAE  0DB1               	rlf	___wmul@multiplicand+1,f
  4436     1EAF  3EFF               	addlw	-1
  4437     1EB0  1D03               	skipz
  4438     1EB1  2EAC               	goto	u2675
  4439     1EB2                     l2351:
  4440     1EB2  3001               	movlw	1
  4441     1EB3                     u2685:
  4442     1EB3  1003               	clrc
  4443     1EB4  0CAF               	rrf	___wmul@multiplier+1,f
  4444     1EB5  0CAE               	rrf	___wmul@multiplier,f
  4445     1EB6  3EFF               	addlw	-1
  4446     1EB7  1D03               	skipz
  4447     1EB8  2EB3               	goto	u2685
  4448     1EB9                     l2353:
  4449     1EB9  082E               	movf	___wmul@multiplier,w
  4450     1EBA  042F               	iorwf	___wmul@multiplier+1,w
  4451     1EBB  1D03               	btfss	3,2
  4452     1EBC  2EBE               	goto	u2691
  4453     1EBD  2EBF               	goto	u2690
  4454     1EBE                     u2691:
  4455     1EBE  2EA1               	goto	l2347
  4456     1EBF                     u2690:
  4457     1EBF                     l2355:
  4458     1EBF  0833               	movf	___wmul@product+1,w
  4459     1EC0  00AF               	movwf	?___wmul+1
  4460     1EC1  0832               	movf	___wmul@product,w
  4461     1EC2  00AE               	movwf	?___wmul
  4462     1EC3                     l290:
  4463     1EC3  0008               	return
  4464     1EC4                     __end_of___wmul:
  4465                           
  4466                           	psect	text9
  4467     1724                     __ptext9:	
  4468 ;; *************** function _dtoa *****************
  4469 ;; Defined at:
  4470 ;;		line 513 in file "C:\Program Files\Microchip\xc8\v3.00\pic\sources\c99\common\doprnt.c"
  4471 ;; Parameters:    Size  Location     Type
  4472 ;;  fp              2   29[BANK0 ] PTR struct _IO_FILE
  4473 ;;		 -> sprintf@f(11), 
  4474 ;;  d               4   31[BANK0 ] long 
  4475 ;; Auto vars:     Size  Location     Type
  4476 ;;  i               2   41[BANK0 ] int 
  4477 ;;  w               2   38[BANK0 ] int 
  4478 ;;  s               1   40[BANK0 ] unsigned char 
  4479 ;;  p               1   37[BANK0 ] _Bool 
  4480 ;; Return value:  Size  Location     Type
  4481 ;;                  1    wreg      void 
  4482 ;; Registers used:
  4483 ;;		wreg, fsr0l, fsr0h, status,2, status,0, btemp+1, pclath, cstack
  4484 ;; Tracked objects:
  4485 ;;		On entry : 0/0
  4486 ;;		On exit  : 0/0
  4487 ;;		Unchanged: 0/0
  4488 ;; Data sizes:     COMMON   BANK0   BANK1   BANK3   BANK2
  4489 ;;      Params:         0       6       0       0       0
  4490 ;;      Locals:         0       8       0       0       0
  4491 ;;      Temps:          0       0       0       0       0
  4492 ;;      Totals:         0      14       0       0       0
  4493 ;;Total ram usage:       14 bytes
  4494 ;; Hardware stack levels used: 1
  4495 ;; Hardware stack levels required when called: 5
  4496 ;; This function calls:
  4497 ;;		___aldiv
  4498 ;;		___almod
  4499 ;;		_abs
  4500 ;;		_pad
  4501 ;; This function is called by:
  4502 ;;		_vfpfcnvrt
  4503 ;; This function uses a non-reentrant model
  4504 ;;
  4505                           
  4506     1724                     _dtoa:	
  4507                           ;psect for function _dtoa
  4508                           
  4509     1724                     l2523:	
  4510                           ;incstack = 0
  4511 ;; hardware stack exceeded
  4512                           ; Regs used in _dtoa: [wreg-fsr0h+status,2+status,0+btemp+1+pclath+cstack]
  4513                           
  4514                           
  4515                           ;C:\Program Files\Microchip\xc8\v3.00\pic\sources\c99\common\doprnt.c: 513: static void 
      +                          dtoa(FILE *fp, vfpf_sint_t d);C:\Program Files\Microchip\xc8\v3.00\pic\sources\c99\commo
      +                          n\doprnt.c: 514: {;C:\Program Files\Microchip\xc8\v3.00\pic\sources\c99\common\doprnt.c:
      +                           515:  char s;;C:\Program Files\Microchip\xc8\v3.00\pic\sources\c99\common\doprnt.c: 516
      +                          :     int i, w;;C:\Program Files\Microchip\xc8\v3.00\pic\sources\c99\common\doprnt.c: 52
      +                          0:  _Bool p = 1;
  4516     1724  3001               	movlw	1
  4517     1725  1283               	bcf	3,5	;RP0=0, select bank0
  4518     1726  1303               	bcf	3,6	;RP1=0, select bank0
  4519     1727  00C5               	movwf	dtoa@p
  4520     1728                     l2525:
  4521                           
  4522                           ;C:\Program Files\Microchip\xc8\v3.00\pic\sources\c99\common\doprnt.c: 524:     s = d < 
      +                          0 ? 1 : 0;
  4523     1728  1BC2               	btfsc	dtoa@d+3,7
  4524     1729  2F2B               	goto	u3121
  4525     172A  2F2D               	goto	u3120
  4526     172B                     u3121:
  4527     172B  3001               	movlw	1
  4528     172C  2F2E               	goto	u3130
  4529     172D                     u3120:
  4530     172D  3000               	movlw	0
  4531     172E                     u3130:
  4532     172E  00C8               	movwf	dtoa@s
  4533                           
  4534                           ;C:\Program Files\Microchip\xc8\v3.00\pic\sources\c99\common\doprnt.c: 535:     w = widt
      +                          h;
  4535     172F  0879               	movf	_width+1,w
  4536     1730  00C7               	movwf	dtoa@w+1
  4537     1731  0878               	movf	_width,w
  4538     1732  00C6               	movwf	dtoa@w
  4539     1733                     l2527:
  4540                           
  4541                           ;C:\Program Files\Microchip\xc8\v3.00\pic\sources\c99\common\doprnt.c: 536:     if (s
  4542     1733  0848               	movf	dtoa@s,w
  4543     1734  1903               	btfsc	3,2
  4544     1735  2F37               	goto	u3141
  4545     1736  2F38               	goto	u3140
  4546     1737                     u3141:
  4547     1737  2F4E               	goto	l795
  4548     1738                     u3140:
  4549     1738                     l2529:
  4550                           
  4551                           ;C:\Program Files\Microchip\xc8\v3.00\pic\sources\c99\common\doprnt.c: 540:     ) {;C:\P
      +                          rogram Files\Microchip\xc8\v3.00\pic\sources\c99\common\doprnt.c: 541:         --w;
  4552     1738  30FF               	movlw	255
  4553     1739  07C6               	addwf	dtoa@w,f
  4554     173A  1803               	skipnc
  4555     173B  0AC7               	incf	dtoa@w+1,f
  4556     173C  30FF               	movlw	255
  4557     173D  07C7               	addwf	dtoa@w+1,f
  4558     173E                     l2531:
  4559                           
  4560                           ;C:\Program Files\Microchip\xc8\v3.00\pic\sources\c99\common\doprnt.c: 542:   s = s ? '-
      +                          ' : '+';
  4561     173E  0848               	movf	dtoa@s,w
  4562     173F  1D03               	btfss	3,2
  4563     1740  2F42               	goto	u3151
  4564     1741  2F43               	goto	u3150
  4565     1742                     u3151:
  4566     1742  2F48               	goto	l2535
  4567     1743                     u3150:
  4568     1743                     l2533:
  4569     1743  302B               	movlw	43
  4570     1744  00C3               	movwf	_dtoa$931
  4571     1745  3000               	movlw	0
  4572     1746  00C4               	movwf	_dtoa$931+1
  4573     1747  2F4C               	goto	l799
  4574     1748                     l2535:
  4575     1748  302D               	movlw	45
  4576     1749  00C3               	movwf	_dtoa$931
  4577     174A  3000               	movlw	0
  4578     174B  00C4               	movwf	_dtoa$931+1
  4579     174C                     l799:
  4580     174C  0843               	movf	_dtoa$931,w
  4581     174D  00C8               	movwf	dtoa@s
  4582     174E                     l795:	
  4583                           ;C:\Program Files\Microchip\xc8\v3.00\pic\sources\c99\common\doprnt.c: 543:     }
  4584                           
  4585                           
  4586                           ;C:\Program Files\Microchip\xc8\v3.00\pic\sources\c99\common\doprnt.c: 552:     i = size
      +                          of(dbuf) - 1;
  4587     174E  301F               	movlw	31
  4588     174F  00C9               	movwf	dtoa@i
  4589     1750  3000               	movlw	0
  4590     1751  00CA               	movwf	dtoa@i+1
  4591     1752                     l2537:
  4592                           
  4593                           ;C:\Program Files\Microchip\xc8\v3.00\pic\sources\c99\common\doprnt.c: 553:     dbuf[i] 
      +                          = '\0';
  4594     1752  1683               	bsf	3,5	;RP0=1, select bank3
  4595     1753  1703               	bsf	3,6	;RP1=1, select bank3
  4596     1754  01AF               	clrf	(_dbuf^(0+384)+31)
  4597                           
  4598                           ;C:\Program Files\Microchip\xc8\v3.00\pic\sources\c99\common\doprnt.c: 554:     while (!
      +                          (i < 1) && (d != 0
  4599     1755  2FAD               	goto	l2549
  4600     1756                     l2539:
  4601                           
  4602                           ;C:\Program Files\Microchip\xc8\v3.00\pic\sources\c99\common\doprnt.c: 563:     )) {;C:\
      +                          Program Files\Microchip\xc8\v3.00\pic\sources\c99\common\doprnt.c: 564:         --i;
  4603     1756  30FF               	movlw	255
  4604     1757  1283               	bcf	3,5	;RP0=0, select bank0
  4605     1758  1303               	bcf	3,6	;RP1=0, select bank0
  4606     1759  07C9               	addwf	dtoa@i,f
  4607     175A  1803               	skipnc
  4608     175B  0ACA               	incf	dtoa@i+1,f
  4609     175C  30FF               	movlw	255
  4610     175D  07CA               	addwf	dtoa@i+1,f
  4611     175E                     l2541:
  4612                           
  4613                           ;C:\Program Files\Microchip\xc8\v3.00\pic\sources\c99\common\doprnt.c: 565:         dbuf
      +                          [i] = (char)((int)'0' + abs(d % 10));
  4614     175E  0849               	movf	dtoa@i,w
  4615     175F  3E90               	addlw	(low (_dbuf| (0+256)))& (0+255)
  4616     1760  0084               	movwf	4
  4617     1761  3000               	movlw	0
  4618     1762  00A3               	movwf	___almod@divisor+3
  4619     1763  3000               	movlw	0
  4620     1764  00A2               	movwf	___almod@divisor+2
  4621     1765  3000               	movlw	0
  4622     1766  00A1               	movwf	___almod@divisor+1
  4623     1767  300A               	movlw	10
  4624     1768  00A0               	movwf	___almod@divisor
  4625     1769  0842               	movf	dtoa@d+3,w
  4626     176A  00A7               	movwf	___almod@dividend+3
  4627     176B  0841               	movf	dtoa@d+2,w
  4628     176C  00A6               	movwf	___almod@dividend+2
  4629     176D  0840               	movf	dtoa@d+1,w
  4630     176E  00A5               	movwf	___almod@dividend+1
  4631     176F  083F               	movf	dtoa@d,w
  4632     1770  00A4               	movwf	___almod@dividend
  4633     1771  160A  118A  236B  160A  118A  	fcall	___almod
  4634     1776  1283               	bcf	3,5	;RP0=0, select bank0
  4635     1777  1303               	bcf	3,6	;RP1=0, select bank0
  4636     1778  0821               	movf	?___almod+1,w
  4637     1779  00AC               	movwf	abs@a+1
  4638     177A  0820               	movf	?___almod,w
  4639     177B  00AB               	movwf	abs@a
  4640     177C  160A  158A  2621  160A  118A  	fcall	_abs
  4641     1781  1283               	bcf	3,5	;RP0=0, select bank0
  4642     1782  1303               	bcf	3,6	;RP1=0, select bank0
  4643     1783  082B               	movf	?_abs,w
  4644     1784  3E30               	addlw	48
  4645     1785  1783               	bsf	3,7	;select IRP bank3
  4646     1786  0080               	movwf	0
  4647     1787                     l2543:
  4648                           
  4649                           ;C:\Program Files\Microchip\xc8\v3.00\pic\sources\c99\common\doprnt.c: 569:   p = 0;
  4650     1787  01C5               	clrf	dtoa@p
  4651     1788                     l2545:
  4652                           
  4653                           ;C:\Program Files\Microchip\xc8\v3.00\pic\sources\c99\common\doprnt.c: 571:         --w;
  4654     1788  30FF               	movlw	255
  4655     1789  07C6               	addwf	dtoa@w,f
  4656     178A  1803               	skipnc
  4657     178B  0AC7               	incf	dtoa@w+1,f
  4658     178C  30FF               	movlw	255
  4659     178D  07C7               	addwf	dtoa@w+1,f
  4660     178E                     l2547:
  4661                           
  4662                           ;C:\Program Files\Microchip\xc8\v3.00\pic\sources\c99\common\doprnt.c: 572:         d = 
      +                          d / 10;
  4663     178E  3000               	movlw	0
  4664     178F  00A3               	movwf	___aldiv@divisor+3
  4665     1790  3000               	movlw	0
  4666     1791  00A2               	movwf	___aldiv@divisor+2
  4667     1792  3000               	movlw	0
  4668     1793  00A1               	movwf	___aldiv@divisor+1
  4669     1794  300A               	movlw	10
  4670     1795  00A0               	movwf	___aldiv@divisor
  4671     1796  0842               	movf	dtoa@d+3,w
  4672     1797  00A7               	movwf	___aldiv@dividend+3
  4673     1798  0841               	movf	dtoa@d+2,w
  4674     1799  00A6               	movwf	___aldiv@dividend+2
  4675     179A  0840               	movf	dtoa@d+1,w
  4676     179B  00A5               	movwf	___aldiv@dividend+1
  4677     179C  083F               	movf	dtoa@d,w
  4678     179D  00A4               	movwf	___aldiv@dividend
  4679     179E  160A  118A  2485  160A  118A  	fcall	___aldiv
  4680     17A3  1283               	bcf	3,5	;RP0=0, select bank0
  4681     17A4  1303               	bcf	3,6	;RP1=0, select bank0
  4682     17A5  0823               	movf	?___aldiv+3,w
  4683     17A6  00C2               	movwf	dtoa@d+3
  4684     17A7  0822               	movf	?___aldiv+2,w
  4685     17A8  00C1               	movwf	dtoa@d+2
  4686     17A9  0821               	movf	?___aldiv+1,w
  4687     17AA  00C0               	movwf	dtoa@d+1
  4688     17AB  0820               	movf	?___aldiv,w
  4689     17AC  00BF               	movwf	dtoa@d
  4690     17AD                     l2549:
  4691                           
  4692                           ;C:\Program Files\Microchip\xc8\v3.00\pic\sources\c99\common\doprnt.c: 554:     while (!
      +                          (i < 1) && (d != 0
  4693     17AD  1283               	bcf	3,5	;RP0=0, select bank0
  4694     17AE  1303               	bcf	3,6	;RP1=0, select bank0
  4695     17AF  084A               	movf	dtoa@i+1,w
  4696     17B0  3A80               	xorlw	128
  4697     17B1  00FF               	movwf	btemp+1
  4698     17B2  3080               	movlw	128
  4699     17B3  027F               	subwf	btemp+1,w
  4700     17B4  1D03               	skipz
  4701     17B5  2FB8               	goto	u3165
  4702     17B6  3001               	movlw	1
  4703     17B7  0249               	subwf	dtoa@i,w
  4704     17B8                     u3165:
  4705     17B8  1C03               	skipc
  4706     17B9  2FBB               	goto	u3161
  4707     17BA  2FBC               	goto	u3160
  4708     17BB                     u3161:
  4709     17BB  2FDC               	goto	l2559
  4710     17BC                     u3160:
  4711     17BC                     l2551:
  4712     17BC  1283               	bcf	3,5	;RP0=0, select bank0
  4713     17BD  1303               	bcf	3,6	;RP1=0, select bank0
  4714     17BE  0842               	movf	dtoa@d+3,w
  4715     17BF  0441               	iorwf	dtoa@d+2,w
  4716     17C0  0440               	iorwf	dtoa@d+1,w
  4717     17C1  043F               	iorwf	dtoa@d,w
  4718     17C2  1D03               	skipz
  4719     17C3  2FC5               	goto	u3171
  4720     17C4  2FC6               	goto	u3170
  4721     17C5                     u3171:
  4722     17C5  2F56               	goto	l2539
  4723     17C6                     u3170:
  4724     17C6                     l2553:
  4725     17C6  0845               	movf	dtoa@p,w
  4726     17C7  1D03               	btfss	3,2
  4727     17C8  2FCA               	goto	u3181
  4728     17C9  2FCB               	goto	u3180
  4729     17CA                     u3181:
  4730     17CA  2F56               	goto	l2539
  4731     17CB                     u3180:
  4732     17CB                     l2555:
  4733     17CB  0847               	movf	dtoa@w+1,w
  4734     17CC  3A80               	xorlw	128
  4735     17CD  00FF               	movwf	btemp+1
  4736     17CE  3080               	movlw	128
  4737     17CF  027F               	subwf	btemp+1,w
  4738     17D0  1D03               	skipz
  4739     17D1  2FD4               	goto	u3195
  4740     17D2  3001               	movlw	1
  4741     17D3  0246               	subwf	dtoa@w,w
  4742     17D4                     u3195:
  4743     17D4  1C03               	skipc
  4744     17D5  2FD7               	goto	u3191
  4745     17D6  2FD8               	goto	u3190
  4746     17D7                     u3191:
  4747     17D7  2FDC               	goto	l2559
  4748     17D8                     u3190:
  4749     17D8                     l2557:
  4750     17D8  18FC               	btfsc	_flags,1
  4751     17D9  2FDB               	goto	u3201
  4752     17DA  2FDC               	goto	u3200
  4753     17DB                     u3201:
  4754     17DB  2F56               	goto	l2539
  4755     17DC                     u3200:
  4756     17DC                     l2559:
  4757                           
  4758                           ;C:\Program Files\Microchip\xc8\v3.00\pic\sources\c99\common\doprnt.c: 576:     if (s !=
      +                           0) {
  4759     17DC  1283               	bcf	3,5	;RP0=0, select bank0
  4760     17DD  1303               	bcf	3,6	;RP1=0, select bank0
  4761     17DE  0848               	movf	dtoa@s,w
  4762     17DF  1903               	btfsc	3,2
  4763     17E0  2FE2               	goto	u3211
  4764     17E1  2FE3               	goto	u3210
  4765     17E2                     u3211:
  4766     17E2  2FEF               	goto	l2565
  4767     17E3                     u3210:
  4768     17E3                     l2561:
  4769                           
  4770                           ;C:\Program Files\Microchip\xc8\v3.00\pic\sources\c99\common\doprnt.c: 577:         --i;
  4771     17E3  30FF               	movlw	255
  4772     17E4  07C9               	addwf	dtoa@i,f
  4773     17E5  1803               	skipnc
  4774     17E6  0ACA               	incf	dtoa@i+1,f
  4775     17E7  30FF               	movlw	255
  4776     17E8  07CA               	addwf	dtoa@i+1,f
  4777     17E9                     l2563:
  4778                           
  4779                           ;C:\Program Files\Microchip\xc8\v3.00\pic\sources\c99\common\doprnt.c: 578:         dbuf
      +                          [i] = s;
  4780     17E9  0849               	movf	dtoa@i,w
  4781     17EA  3E90               	addlw	(low (_dbuf| (0+256)))& (0+255)
  4782     17EB  0084               	movwf	4
  4783     17EC  0848               	movf	dtoa@s,w
  4784     17ED  1783               	bsf	3,7	;select IRP bank3
  4785     17EE  0080               	movwf	0
  4786     17EF                     l2565:
  4787                           
  4788                           ;C:\Program Files\Microchip\xc8\v3.00\pic\sources\c99\common\doprnt.c: 582:     return (
      +                          void) pad(fp, &dbuf[i], w);
  4789     17EF  083D               	movf	dtoa@fp,w
  4790     17F0  00B5               	movwf	pad@fp
  4791     17F1  083E               	movf	dtoa@fp+1,w
  4792     17F2  00B6               	movwf	pad@fp+1
  4793     17F3  0849               	movf	dtoa@i,w
  4794     17F4  3E90               	addlw	(low (_dbuf| (0+256)))& (0+255)
  4795     17F5  00B7               	movwf	pad@buf
  4796     17F6  0847               	movf	dtoa@w+1,w
  4797     17F7  00B9               	movwf	pad@p+1
  4798     17F8  0846               	movf	dtoa@w,w
  4799     17F9  00B8               	movwf	pad@p
  4800     17FA  160A  118A  20BC  160A  118A  	fcall	_pad
  4801     17FF                     l808:
  4802     17FF  0008               	return
  4803     1800                     __end_of_dtoa:
  4804                           
  4805                           	psect	text10
  4806     10BC                     __ptext10:	
  4807 ;; *************** function _pad *****************
  4808 ;; Defined at:
  4809 ;;		line 193 in file "C:\Program Files\Microchip\xc8\v3.00\pic\sources\c99\common\doprnt.c"
  4810 ;; Parameters:    Size  Location     Type
  4811 ;;  fp              2   21[BANK0 ] PTR struct _IO_FILE
  4812 ;;		 -> sprintf@f(11), 
  4813 ;;  buf             1   23[BANK0 ] PTR unsigned char 
  4814 ;;		 -> dbuf(32), 
  4815 ;;  p               2   24[BANK0 ] int 
  4816 ;; Auto vars:     Size  Location     Type
  4817 ;;  i               2   27[BANK0 ] int 
  4818 ;; Return value:  Size  Location     Type
  4819 ;;                  1    wreg      void 
  4820 ;; Registers used:
  4821 ;;		wreg, fsr0l, fsr0h, status,2, status,0, pclath, cstack
  4822 ;; Tracked objects:
  4823 ;;		On entry : 0/0
  4824 ;;		On exit  : 0/0
  4825 ;;		Unchanged: 0/0
  4826 ;; Data sizes:     COMMON   BANK0   BANK1   BANK3   BANK2
  4827 ;;      Params:         0       5       0       0       0
  4828 ;;      Locals:         0       2       0       0       0
  4829 ;;      Temps:          0       1       0       0       0
  4830 ;;      Totals:         0       8       0       0       0
  4831 ;;Total ram usage:        8 bytes
  4832 ;; Hardware stack levels used: 1
  4833 ;; Hardware stack levels required when called: 4
  4834 ;; This function calls:
  4835 ;;		_fputc
  4836 ;;		_fputs
  4837 ;; This function is called by:
  4838 ;;		_dtoa
  4839 ;;		_utoa
  4840 ;; This function uses a non-reentrant model
  4841 ;;
  4842                           
  4843     10BC                     _pad:	
  4844                           ;psect for function _pad
  4845                           
  4846     10BC                     l2475:	
  4847                           ;incstack = 0
  4848 ;; hardware stack exceeded
  4849                           ; Regs used in _pad: [wreg-fsr0h+status,2+status,0+pclath+cstack]
  4850                           
  4851                           
  4852                           ;C:\Program Files\Microchip\xc8\v3.00\pic\sources\c99\common\doprnt.c: 193: static void 
      +                          pad(FILE *fp, char *buf, int p);C:\Program Files\Microchip\xc8\v3.00\pic\sources\c99\com
      +                          mon\doprnt.c: 194: {;C:\Program Files\Microchip\xc8\v3.00\pic\sources\c99\common\doprnt.
      +                          c: 195:     int i;;C:\Program Files\Microchip\xc8\v3.00\pic\sources\c99\common\doprnt.c:
      +                           199:     if (flags & (1 << 0)) {
  4853     10BC  1C7C               	btfss	_flags,0
  4854     10BD  28BF               	goto	u3021
  4855     10BE  28C0               	goto	u3020
  4856     10BF                     u3021:
  4857     10BF  28CD               	goto	l2479
  4858     10C0                     u3020:
  4859     10C0                     l2477:
  4860                           
  4861                           ;C:\Program Files\Microchip\xc8\v3.00\pic\sources\c99\common\doprnt.c: 200:         fput
      +                          s((const char *)buf, fp);
  4862     10C0  1283               	bcf	3,5	;RP0=0, select bank0
  4863     10C1  1303               	bcf	3,6	;RP1=0, select bank0
  4864     10C2  0837               	movf	pad@buf,w
  4865     10C3  00AD               	movwf	fputs@s
  4866     10C4  0835               	movf	pad@fp,w
  4867     10C5  00AE               	movwf	fputs@fp
  4868     10C6  0836               	movf	pad@fp+1,w
  4869     10C7  00AF               	movwf	fputs@fp+1
  4870     10C8  160A  158A  2715  160A  118A  	fcall	_fputs
  4871     10CD                     l2479:
  4872                           
  4873                           ;C:\Program Files\Microchip\xc8\v3.00\pic\sources\c99\common\doprnt.c: 205:  if (p < 0) 
      +                          {
  4874     10CD  1283               	bcf	3,5	;RP0=0, select bank0
  4875     10CE  1303               	bcf	3,6	;RP1=0, select bank0
  4876     10CF  1FB9               	btfss	pad@p+1,7
  4877     10D0  28D2               	goto	u3031
  4878     10D1  28D3               	goto	u3030
  4879     10D2                     u3031:
  4880     10D2  28D5               	goto	l771
  4881     10D3                     u3030:
  4882     10D3                     l2481:
  4883                           
  4884                           ;C:\Program Files\Microchip\xc8\v3.00\pic\sources\c99\common\doprnt.c: 206:   p = 0;
  4885     10D3  01B8               	clrf	pad@p
  4886     10D4  01B9               	clrf	pad@p+1
  4887     10D5                     l771:	
  4888                           ;C:\Program Files\Microchip\xc8\v3.00\pic\sources\c99\common\doprnt.c: 207:  }
  4889                           
  4890                           
  4891                           ;C:\Program Files\Microchip\xc8\v3.00\pic\sources\c99\common\doprnt.c: 208:     i = 0;
  4892     10D5  01BB               	clrf	pad@i
  4893     10D6  01BC               	clrf	pad@i+1
  4894                           
  4895                           ;C:\Program Files\Microchip\xc8\v3.00\pic\sources\c99\common\doprnt.c: 209:     while (i
      +                           < p) {
  4896     10D7  28EF               	goto	l2487
  4897     10D8                     l2483:
  4898                           
  4899                           ;C:\Program Files\Microchip\xc8\v3.00\pic\sources\c99\common\doprnt.c: 210:         fput
      +                          c(' ', fp);
  4900     10D8  3020               	movlw	32
  4901     10D9  1283               	bcf	3,5	;RP0=0, select bank0
  4902     10DA  1303               	bcf	3,6	;RP1=0, select bank0
  4903     10DB  00A0               	movwf	fputc@c
  4904     10DC  3000               	movlw	0
  4905     10DD  00A1               	movwf	fputc@c+1
  4906     10DE  0835               	movf	pad@fp,w
  4907     10DF  00A2               	movwf	fputc@fp
  4908     10E0  0836               	movf	pad@fp+1,w
  4909     10E1  00A3               	movwf	fputc@fp+1
  4910     10E2  160A  118A  251E  160A  118A  	fcall	_fputc
  4911     10E7                     l2485:
  4912                           
  4913                           ;C:\Program Files\Microchip\xc8\v3.00\pic\sources\c99\common\doprnt.c: 211:         ++i;
  4914     10E7  3001               	movlw	1
  4915     10E8  1283               	bcf	3,5	;RP0=0, select bank0
  4916     10E9  1303               	bcf	3,6	;RP1=0, select bank0
  4917     10EA  07BB               	addwf	pad@i,f
  4918     10EB  1803               	skipnc
  4919     10EC  0ABC               	incf	pad@i+1,f
  4920     10ED  3000               	movlw	0
  4921     10EE  07BC               	addwf	pad@i+1,f
  4922     10EF                     l2487:
  4923                           
  4924                           ;C:\Program Files\Microchip\xc8\v3.00\pic\sources\c99\common\doprnt.c: 209:     while (i
      +                           < p) {
  4925     10EF  083C               	movf	pad@i+1,w
  4926     10F0  3A80               	xorlw	128
  4927     10F1  00BA               	movwf	??_pad
  4928     10F2  0839               	movf	pad@p+1,w
  4929     10F3  3A80               	xorlw	128
  4930     10F4  023A               	subwf	??_pad,w
  4931     10F5  1D03               	skipz
  4932     10F6  28F9               	goto	u3045
  4933     10F7  0838               	movf	pad@p,w
  4934     10F8  023B               	subwf	pad@i,w
  4935     10F9                     u3045:
  4936     10F9  1C03               	skipc
  4937     10FA  28FC               	goto	u3041
  4938     10FB  28FD               	goto	u3040
  4939     10FC                     u3041:
  4940     10FC  28D8               	goto	l2483
  4941     10FD                     u3040:
  4942     10FD                     l774:
  4943                           
  4944                           ;C:\Program Files\Microchip\xc8\v3.00\pic\sources\c99\common\doprnt.c: 216:     if (!(fl
      +                          ags & (1 << 0))) {
  4945     10FD  187C               	btfsc	_flags,0
  4946     10FE  2900               	goto	u3051
  4947     10FF  2901               	goto	u3050
  4948     1100                     u3051:
  4949     1100  290E               	goto	l776
  4950     1101                     u3050:
  4951     1101                     l2489:
  4952                           
  4953                           ;C:\Program Files\Microchip\xc8\v3.00\pic\sources\c99\common\doprnt.c: 218:         fput
      +                          s((const char *)buf, fp);
  4954     1101  1283               	bcf	3,5	;RP0=0, select bank0
  4955     1102  1303               	bcf	3,6	;RP1=0, select bank0
  4956     1103  0837               	movf	pad@buf,w
  4957     1104  00AD               	movwf	fputs@s
  4958     1105  0835               	movf	pad@fp,w
  4959     1106  00AE               	movwf	fputs@fp
  4960     1107  0836               	movf	pad@fp+1,w
  4961     1108  00AF               	movwf	fputs@fp+1
  4962     1109  160A  158A  2715  160A  118A  	fcall	_fputs
  4963     110E                     l776:
  4964     110E  0008               	return
  4965     110F                     __end_of_pad:
  4966                           
  4967                           	psect	text11
  4968     1F15                     __ptext11:	
  4969 ;; *************** function _fputs *****************
  4970 ;; Defined at:
  4971 ;;		line 8 in file "C:\Program Files\Microchip\xc8\v3.00\pic\sources\c99\common\nf_fputs.c"
  4972 ;; Parameters:    Size  Location     Type
  4973 ;;  s               1   13[BANK0 ] PTR const unsigned char 
  4974 ;;		 -> dbuf(32), 
  4975 ;;  fp              2   14[BANK0 ] PTR struct _IO_FILE
  4976 ;;		 -> sprintf@f(11), 
  4977 ;; Auto vars:     Size  Location     Type
  4978 ;;  i               2   19[BANK0 ] int 
  4979 ;;  c               1   18[BANK0 ] unsigned char 
  4980 ;; Return value:  Size  Location     Type
  4981 ;;                  2   13[BANK0 ] int 
  4982 ;; Registers used:
  4983 ;;		wreg, fsr0l, fsr0h, status,2, status,0, pclath, cstack
  4984 ;; Tracked objects:
  4985 ;;		On entry : 0/0
  4986 ;;		On exit  : 0/0
  4987 ;;		Unchanged: 0/0
  4988 ;; Data sizes:     COMMON   BANK0   BANK1   BANK3   BANK2
  4989 ;;      Params:         0       3       0       0       0
  4990 ;;      Locals:         0       3       0       0       0
  4991 ;;      Temps:          0       2       0       0       0
  4992 ;;      Totals:         0       8       0       0       0
  4993 ;;Total ram usage:        8 bytes
  4994 ;; Hardware stack levels used: 1
  4995 ;; Hardware stack levels required when called: 3
  4996 ;; This function calls:
  4997 ;;		_fputc
  4998 ;; This function is called by:
  4999 ;;		_pad
  5000 ;; This function uses a non-reentrant model
  5001 ;;
  5002                           
  5003     1F15                     _fputs:	
  5004                           ;psect for function _fputs
  5005                           
  5006     1F15                     l2337:	
  5007                           ;incstack = 0
  5008 ;; hardware stack exceeded
  5009                           ; Regs used in _fputs: [wreg-fsr0h+status,2+status,0+pclath+cstack]
  5010                           
  5011     1F15  1283               	bcf	3,5	;RP0=0, select bank0
  5012     1F16  1303               	bcf	3,6	;RP1=0, select bank0
  5013     1F17  01B3               	clrf	fputs@i
  5014     1F18  01B4               	clrf	fputs@i+1
  5015     1F19  2F32               	goto	l2343
  5016     1F1A                     l2339:
  5017     1F1A  0832               	movf	fputs@c,w
  5018     1F1B  00B0               	movwf	??_fputs
  5019     1F1C  01B1               	clrf	??_fputs+1
  5020     1F1D  0830               	movf	??_fputs,w
  5021     1F1E  00A0               	movwf	fputc@c
  5022     1F1F  0831               	movf	??_fputs+1,w
  5023     1F20  00A1               	movwf	fputc@c+1
  5024     1F21  082E               	movf	fputs@fp,w
  5025     1F22  00A2               	movwf	fputc@fp
  5026     1F23  082F               	movf	fputs@fp+1,w
  5027     1F24  00A3               	movwf	fputc@fp+1
  5028     1F25  160A  118A  251E  160A  158A  	fcall	_fputc
  5029     1F2A                     l2341:
  5030     1F2A  3001               	movlw	1
  5031     1F2B  1283               	bcf	3,5	;RP0=0, select bank0
  5032     1F2C  1303               	bcf	3,6	;RP1=0, select bank0
  5033     1F2D  07B3               	addwf	fputs@i,f
  5034     1F2E  1803               	skipnc
  5035     1F2F  0AB4               	incf	fputs@i+1,f
  5036     1F30  3000               	movlw	0
  5037     1F31  07B4               	addwf	fputs@i+1,f
  5038     1F32                     l2343:
  5039     1F32  0833               	movf	fputs@i,w
  5040     1F33  072D               	addwf	fputs@s,w
  5041     1F34  00B0               	movwf	??_fputs
  5042     1F35  0830               	movf	??_fputs,w
  5043     1F36  0084               	movwf	4
  5044     1F37  1783               	bsf	3,7	;select IRP bank2
  5045     1F38  0800               	movf	0,w
  5046     1F39  00B2               	movwf	fputs@c
  5047     1F3A  0832               	movf	fputs@c,w
  5048     1F3B  1D03               	btfss	3,2
  5049     1F3C  2F3E               	goto	u2651
  5050     1F3D  2F3F               	goto	u2650
  5051     1F3E                     u2651:
  5052     1F3E  2F1A               	goto	l2339
  5053     1F3F                     u2650:
  5054     1F3F                     l896:
  5055     1F3F  0008               	return
  5056     1F40                     __end_of_fputs:
  5057                           
  5058                           	psect	text12
  5059     1E21                     __ptext12:	
  5060 ;; *************** function _abs *****************
  5061 ;; Defined at:
  5062 ;;		line 1 in file "C:\Program Files\Microchip\xc8\v3.00\pic\sources\c99\common\abs.c"
  5063 ;; Parameters:    Size  Location     Type
  5064 ;;  a               2   11[BANK0 ] int 
  5065 ;; Auto vars:     Size  Location     Type
  5066 ;;		None
  5067 ;; Return value:  Size  Location     Type
  5068 ;;                  2   11[BANK0 ] int 
  5069 ;; Registers used:
  5070 ;;		wreg, status,2, status,0
  5071 ;; Tracked objects:
  5072 ;;		On entry : 0/0
  5073 ;;		On exit  : 0/0
  5074 ;;		Unchanged: 0/0
  5075 ;; Data sizes:     COMMON   BANK0   BANK1   BANK3   BANK2
  5076 ;;      Params:         0       2       0       0       0
  5077 ;;      Locals:         0       0       0       0       0
  5078 ;;      Temps:          0       2       0       0       0
  5079 ;;      Totals:         0       4       0       0       0
  5080 ;;Total ram usage:        4 bytes
  5081 ;; Hardware stack levels used: 1
  5082 ;; Hardware stack levels required when called: 1
  5083 ;; This function calls:
  5084 ;;		Nothing
  5085 ;; This function is called by:
  5086 ;;		_dtoa
  5087 ;; This function uses a non-reentrant model
  5088 ;;
  5089                           
  5090     1E21                     _abs:	
  5091                           ;psect for function _abs
  5092                           
  5093     1E21                     l2491:	
  5094                           ;incstack = 0
  5095                           ; Regs used in _abs: [wreg+status,2+status,0]
  5096                           
  5097     1E21  1283               	bcf	3,5	;RP0=0, select bank0
  5098     1E22  1303               	bcf	3,6	;RP1=0, select bank0
  5099     1E23  1BAC               	btfsc	abs@a+1,7
  5100     1E24  2E26               	goto	u3061
  5101     1E25  2E27               	goto	u3060
  5102     1E26                     u3061:
  5103     1E26  2E28               	goto	l2495
  5104     1E27                     u3060:
  5105     1E27                     l2493:
  5106     1E27  2E33               	goto	l876
  5107     1E28                     l2495:
  5108     1E28  092B               	comf	abs@a,w
  5109     1E29  00AD               	movwf	??_abs
  5110     1E2A  092C               	comf	abs@a+1,w
  5111     1E2B  00AE               	movwf	??_abs+1
  5112     1E2C  0AAD               	incf	??_abs,f
  5113     1E2D  1903               	skipnz
  5114     1E2E  0AAE               	incf	??_abs+1,f
  5115     1E2F  082D               	movf	??_abs,w
  5116     1E30  00AB               	movwf	?_abs
  5117     1E31  082E               	movf	??_abs+1,w
  5118     1E32  00AC               	movwf	?_abs+1
  5119     1E33                     l876:
  5120     1E33  0008               	return
  5121     1E34                     __end_of_abs:
  5122                           
  5123                           	psect	text13
  5124     136B                     __ptext13:	
  5125 ;; *************** function ___almod *****************
  5126 ;; Defined at:
  5127 ;;		line 5 in file "C:\Program Files\Microchip\xc8\v3.00\pic\sources\c99\common\almod.c"
  5128 ;; Parameters:    Size  Location     Type
  5129 ;;  divisor         4    0[BANK0 ] long 
  5130 ;;  dividend        4    4[BANK0 ] long 
  5131 ;; Auto vars:     Size  Location     Type
  5132 ;;  sign            1   10[BANK0 ] unsigned char 
  5133 ;;  counter         1    9[BANK0 ] unsigned char 
  5134 ;; Return value:  Size  Location     Type
  5135 ;;                  4    0[BANK0 ] long 
  5136 ;; Registers used:
  5137 ;;		wreg, status,2, status,0
  5138 ;; Tracked objects:
  5139 ;;		On entry : 0/0
  5140 ;;		On exit  : 0/0
  5141 ;;		Unchanged: 0/0
  5142 ;; Data sizes:     COMMON   BANK0   BANK1   BANK3   BANK2
  5143 ;;      Params:         0       8       0       0       0
  5144 ;;      Locals:         0       2       0       0       0
  5145 ;;      Temps:          0       1       0       0       0
  5146 ;;      Totals:         0      11       0       0       0
  5147 ;;Total ram usage:       11 bytes
  5148 ;; Hardware stack levels used: 1
  5149 ;; Hardware stack levels required when called: 1
  5150 ;; This function calls:
  5151 ;;		Nothing
  5152 ;; This function is called by:
  5153 ;;		_dtoa
  5154 ;; This function uses a non-reentrant model
  5155 ;;
  5156                           
  5157     136B                     ___almod:	
  5158                           ;psect for function ___almod
  5159                           
  5160     136B                     l2423:	
  5161                           ;incstack = 0
  5162                           ; Regs used in ___almod: [wreg+status,2+status,0]
  5163                           
  5164     136B  1283               	bcf	3,5	;RP0=0, select bank0
  5165     136C  1303               	bcf	3,6	;RP1=0, select bank0
  5166     136D  01AA               	clrf	___almod@sign
  5167     136E                     l2425:
  5168     136E  1FA7               	btfss	___almod@dividend+3,7
  5169     136F  2B71               	goto	u2871
  5170     1370  2B72               	goto	u2870
  5171     1371                     u2871:
  5172     1371  2B7F               	goto	l366
  5173     1372                     u2870:
  5174     1372                     l2427:
  5175     1372  09A4               	comf	___almod@dividend,f
  5176     1373  09A5               	comf	___almod@dividend+1,f
  5177     1374  09A6               	comf	___almod@dividend+2,f
  5178     1375  09A7               	comf	___almod@dividend+3,f
  5179     1376  0AA4               	incf	___almod@dividend,f
  5180     1377  1903               	skipnz
  5181     1378  0AA5               	incf	___almod@dividend+1,f
  5182     1379  1903               	skipnz
  5183     137A  0AA6               	incf	___almod@dividend+2,f
  5184     137B  1903               	skipnz
  5185     137C  0AA7               	incf	___almod@dividend+3,f
  5186     137D  3001               	movlw	1
  5187     137E  00AA               	movwf	___almod@sign
  5188     137F                     l366:
  5189     137F  1FA3               	btfss	___almod@divisor+3,7
  5190     1380  2B82               	goto	u2881
  5191     1381  2B83               	goto	u2880
  5192     1382                     u2881:
  5193     1382  2B8E               	goto	l2431
  5194     1383                     u2880:
  5195     1383                     l2429:
  5196     1383  09A0               	comf	___almod@divisor,f
  5197     1384  09A1               	comf	___almod@divisor+1,f
  5198     1385  09A2               	comf	___almod@divisor+2,f
  5199     1386  09A3               	comf	___almod@divisor+3,f
  5200     1387  0AA0               	incf	___almod@divisor,f
  5201     1388  1903               	skipnz
  5202     1389  0AA1               	incf	___almod@divisor+1,f
  5203     138A  1903               	skipnz
  5204     138B  0AA2               	incf	___almod@divisor+2,f
  5205     138C  1903               	skipnz
  5206     138D  0AA3               	incf	___almod@divisor+3,f
  5207     138E                     l2431:
  5208     138E  0823               	movf	___almod@divisor+3,w
  5209     138F  0422               	iorwf	___almod@divisor+2,w
  5210     1390  0421               	iorwf	___almod@divisor+1,w
  5211     1391  0420               	iorwf	___almod@divisor,w
  5212     1392  1903               	skipnz
  5213     1393  2B95               	goto	u2891
  5214     1394  2B96               	goto	u2890
  5215     1395                     u2891:
  5216     1395  2BD7               	goto	l2447
  5217     1396                     u2890:
  5218     1396                     l2433:
  5219     1396  3001               	movlw	1
  5220     1397  00A9               	movwf	___almod@counter
  5221     1398  2BA4               	goto	l2437
  5222     1399                     l2435:
  5223     1399  3001               	movlw	1
  5224     139A  00A8               	movwf	??___almod
  5225     139B                     u2905:
  5226     139B  1003               	clrc
  5227     139C  0DA0               	rlf	___almod@divisor,f
  5228     139D  0DA1               	rlf	___almod@divisor+1,f
  5229     139E  0DA2               	rlf	___almod@divisor+2,f
  5230     139F  0DA3               	rlf	___almod@divisor+3,f
  5231     13A0  0BA8               	decfsz	??___almod,f
  5232     13A1  2B9B               	goto	u2905
  5233     13A2  3001               	movlw	1
  5234     13A3  07A9               	addwf	___almod@counter,f
  5235     13A4                     l2437:
  5236     13A4  1FA3               	btfss	___almod@divisor+3,7
  5237     13A5  2BA7               	goto	u2911
  5238     13A6  2BA8               	goto	u2910
  5239     13A7                     u2911:
  5240     13A7  2B99               	goto	l2435
  5241     13A8                     u2910:
  5242     13A8                     l2439:
  5243     13A8  0823               	movf	___almod@divisor+3,w
  5244     13A9  0227               	subwf	___almod@dividend+3,w
  5245     13AA  1D03               	skipz
  5246     13AB  2BB6               	goto	u2925
  5247     13AC  0822               	movf	___almod@divisor+2,w
  5248     13AD  0226               	subwf	___almod@dividend+2,w
  5249     13AE  1D03               	skipz
  5250     13AF  2BB6               	goto	u2925
  5251     13B0  0821               	movf	___almod@divisor+1,w
  5252     13B1  0225               	subwf	___almod@dividend+1,w
  5253     13B2  1D03               	skipz
  5254     13B3  2BB6               	goto	u2925
  5255     13B4  0820               	movf	___almod@divisor,w
  5256     13B5  0224               	subwf	___almod@dividend,w
  5257     13B6                     u2925:
  5258     13B6  1C03               	skipc
  5259     13B7  2BB9               	goto	u2921
  5260     13B8  2BBA               	goto	u2920
  5261     13B9                     u2921:
  5262     13B9  2BC8               	goto	l2443
  5263     13BA                     u2920:
  5264     13BA                     l2441:
  5265     13BA  0820               	movf	___almod@divisor,w
  5266     13BB  02A4               	subwf	___almod@dividend,f
  5267     13BC  0821               	movf	___almod@divisor+1,w
  5268     13BD  1C03               	skipc
  5269     13BE  0F21               	incfsz	___almod@divisor+1,w
  5270     13BF  02A5               	subwf	___almod@dividend+1,f
  5271     13C0  0822               	movf	___almod@divisor+2,w
  5272     13C1  1C03               	skipc
  5273     13C2  0F22               	incfsz	___almod@divisor+2,w
  5274     13C3  02A6               	subwf	___almod@dividend+2,f
  5275     13C4  0823               	movf	___almod@divisor+3,w
  5276     13C5  1C03               	skipc
  5277     13C6  0F23               	incfsz	___almod@divisor+3,w
  5278     13C7  02A7               	subwf	___almod@dividend+3,f
  5279     13C8                     l2443:
  5280     13C8  3001               	movlw	1
  5281     13C9                     u2935:
  5282     13C9  1003               	clrc
  5283     13CA  0CA3               	rrf	___almod@divisor+3,f
  5284     13CB  0CA2               	rrf	___almod@divisor+2,f
  5285     13CC  0CA1               	rrf	___almod@divisor+1,f
  5286     13CD  0CA0               	rrf	___almod@divisor,f
  5287     13CE  3EFF               	addlw	-1
  5288     13CF  1D03               	skipz
  5289     13D0  2BC9               	goto	u2935
  5290     13D1                     l2445:
  5291     13D1  3001               	movlw	1
  5292     13D2  02A9               	subwf	___almod@counter,f
  5293     13D3  1D03               	btfss	3,2
  5294     13D4  2BD6               	goto	u2941
  5295     13D5  2BD7               	goto	u2940
  5296     13D6                     u2941:
  5297     13D6  2BA8               	goto	l2439
  5298     13D7                     u2940:
  5299     13D7                     l2447:
  5300     13D7  082A               	movf	___almod@sign,w
  5301     13D8  1903               	btfsc	3,2
  5302     13D9  2BDB               	goto	u2951
  5303     13DA  2BDC               	goto	u2950
  5304     13DB                     u2951:
  5305     13DB  2BE7               	goto	l2451
  5306     13DC                     u2950:
  5307     13DC                     l2449:
  5308     13DC  09A4               	comf	___almod@dividend,f
  5309     13DD  09A5               	comf	___almod@dividend+1,f
  5310     13DE  09A6               	comf	___almod@dividend+2,f
  5311     13DF  09A7               	comf	___almod@dividend+3,f
  5312     13E0  0AA4               	incf	___almod@dividend,f
  5313     13E1  1903               	skipnz
  5314     13E2  0AA5               	incf	___almod@dividend+1,f
  5315     13E3  1903               	skipnz
  5316     13E4  0AA6               	incf	___almod@dividend+2,f
  5317     13E5  1903               	skipnz
  5318     13E6  0AA7               	incf	___almod@dividend+3,f
  5319     13E7                     l2451:
  5320     13E7  0827               	movf	___almod@dividend+3,w
  5321     13E8  00A3               	movwf	?___almod+3
  5322     13E9  0826               	movf	___almod@dividend+2,w
  5323     13EA  00A2               	movwf	?___almod+2
  5324     13EB  0825               	movf	___almod@dividend+1,w
  5325     13EC  00A1               	movwf	?___almod+1
  5326     13ED  0824               	movf	___almod@dividend,w
  5327     13EE  00A0               	movwf	?___almod
  5328     13EF                     l376:
  5329     13EF  0008               	return
  5330     13F0                     __end_of___almod:
  5331                           
  5332                           	psect	text14
  5333     1485                     __ptext14:	
  5334 ;; *************** function ___aldiv *****************
  5335 ;; Defined at:
  5336 ;;		line 5 in file "C:\Program Files\Microchip\xc8\v3.00\pic\sources\c99\common\aldiv.c"
  5337 ;; Parameters:    Size  Location     Type
  5338 ;;  divisor         4    0[BANK0 ] long 
  5339 ;;  dividend        4    4[BANK0 ] long 
  5340 ;; Auto vars:     Size  Location     Type
  5341 ;;  quotient        4   11[BANK0 ] long 
  5342 ;;  sign            1   10[BANK0 ] unsigned char 
  5343 ;;  counter         1    9[BANK0 ] unsigned char 
  5344 ;; Return value:  Size  Location     Type
  5345 ;;                  4    0[BANK0 ] long 
  5346 ;; Registers used:
  5347 ;;		wreg, status,2, status,0
  5348 ;; Tracked objects:
  5349 ;;		On entry : 0/0
  5350 ;;		On exit  : 0/0
  5351 ;;		Unchanged: 0/0
  5352 ;; Data sizes:     COMMON   BANK0   BANK1   BANK3   BANK2
  5353 ;;      Params:         0       8       0       0       0
  5354 ;;      Locals:         0       6       0       0       0
  5355 ;;      Temps:          0       1       0       0       0
  5356 ;;      Totals:         0      15       0       0       0
  5357 ;;Total ram usage:       15 bytes
  5358 ;; Hardware stack levels used: 1
  5359 ;; Hardware stack levels required when called: 1
  5360 ;; This function calls:
  5361 ;;		Nothing
  5362 ;; This function is called by:
  5363 ;;		_main
  5364 ;;		_dtoa
  5365 ;; This function uses a non-reentrant model
  5366 ;;
  5367                           
  5368     1485                     ___aldiv:	
  5369                           ;psect for function ___aldiv
  5370                           
  5371     1485                     l2383:	
  5372                           ;incstack = 0
  5373                           ; Regs used in ___aldiv: [wreg+status,2+status,0]
  5374                           
  5375     1485  1283               	bcf	3,5	;RP0=0, select bank0
  5376     1486  1303               	bcf	3,6	;RP1=0, select bank0
  5377     1487  01AA               	clrf	___aldiv@sign
  5378     1488                     l2385:
  5379     1488  1FA3               	btfss	___aldiv@divisor+3,7
  5380     1489  2C8B               	goto	u2771
  5381     148A  2C8C               	goto	u2770
  5382     148B                     u2771:
  5383     148B  2C99               	goto	l353
  5384     148C                     u2770:
  5385     148C                     l2387:
  5386     148C  09A0               	comf	___aldiv@divisor,f
  5387     148D  09A1               	comf	___aldiv@divisor+1,f
  5388     148E  09A2               	comf	___aldiv@divisor+2,f
  5389     148F  09A3               	comf	___aldiv@divisor+3,f
  5390     1490  0AA0               	incf	___aldiv@divisor,f
  5391     1491  1903               	skipnz
  5392     1492  0AA1               	incf	___aldiv@divisor+1,f
  5393     1493  1903               	skipnz
  5394     1494  0AA2               	incf	___aldiv@divisor+2,f
  5395     1495  1903               	skipnz
  5396     1496  0AA3               	incf	___aldiv@divisor+3,f
  5397     1497  3001               	movlw	1
  5398     1498  00AA               	movwf	___aldiv@sign
  5399     1499                     l353:
  5400     1499  1FA7               	btfss	___aldiv@dividend+3,7
  5401     149A  2C9C               	goto	u2781
  5402     149B  2C9D               	goto	u2780
  5403     149C                     u2781:
  5404     149C  2CAA               	goto	l2393
  5405     149D                     u2780:
  5406     149D                     l2389:
  5407     149D  09A4               	comf	___aldiv@dividend,f
  5408     149E  09A5               	comf	___aldiv@dividend+1,f
  5409     149F  09A6               	comf	___aldiv@dividend+2,f
  5410     14A0  09A7               	comf	___aldiv@dividend+3,f
  5411     14A1  0AA4               	incf	___aldiv@dividend,f
  5412     14A2  1903               	skipnz
  5413     14A3  0AA5               	incf	___aldiv@dividend+1,f
  5414     14A4  1903               	skipnz
  5415     14A5  0AA6               	incf	___aldiv@dividend+2,f
  5416     14A6  1903               	skipnz
  5417     14A7  0AA7               	incf	___aldiv@dividend+3,f
  5418     14A8                     l2391:
  5419     14A8  3001               	movlw	1
  5420     14A9  06AA               	xorwf	___aldiv@sign,f
  5421     14AA                     l2393:
  5422     14AA  3000               	movlw	0
  5423     14AB  00AE               	movwf	___aldiv@quotient+3
  5424     14AC  3000               	movlw	0
  5425     14AD  00AD               	movwf	___aldiv@quotient+2
  5426     14AE  3000               	movlw	0
  5427     14AF  00AC               	movwf	___aldiv@quotient+1
  5428     14B0  3000               	movlw	0
  5429     14B1  00AB               	movwf	___aldiv@quotient
  5430     14B2                     l2395:
  5431     14B2  0823               	movf	___aldiv@divisor+3,w
  5432     14B3  0422               	iorwf	___aldiv@divisor+2,w
  5433     14B4  0421               	iorwf	___aldiv@divisor+1,w
  5434     14B5  0420               	iorwf	___aldiv@divisor,w
  5435     14B6  1903               	skipnz
  5436     14B7  2CB9               	goto	u2791
  5437     14B8  2CBA               	goto	u2790
  5438     14B9                     u2791:
  5439     14B9  2D05               	goto	l2415
  5440     14BA                     u2790:
  5441     14BA                     l2397:
  5442     14BA  3001               	movlw	1
  5443     14BB  00A9               	movwf	___aldiv@counter
  5444     14BC  2CC8               	goto	l2401
  5445     14BD                     l2399:
  5446     14BD  3001               	movlw	1
  5447     14BE  00A8               	movwf	??___aldiv
  5448     14BF                     u2805:
  5449     14BF  1003               	clrc
  5450     14C0  0DA0               	rlf	___aldiv@divisor,f
  5451     14C1  0DA1               	rlf	___aldiv@divisor+1,f
  5452     14C2  0DA2               	rlf	___aldiv@divisor+2,f
  5453     14C3  0DA3               	rlf	___aldiv@divisor+3,f
  5454     14C4  0BA8               	decfsz	??___aldiv,f
  5455     14C5  2CBF               	goto	u2805
  5456     14C6  3001               	movlw	1
  5457     14C7  07A9               	addwf	___aldiv@counter,f
  5458     14C8                     l2401:
  5459     14C8  1FA3               	btfss	___aldiv@divisor+3,7
  5460     14C9  2CCB               	goto	u2811
  5461     14CA  2CCC               	goto	u2810
  5462     14CB                     u2811:
  5463     14CB  2CBD               	goto	l2399
  5464     14CC                     u2810:
  5465     14CC                     l2403:
  5466     14CC  3001               	movlw	1
  5467     14CD  00A8               	movwf	??___aldiv
  5468     14CE                     u2825:
  5469     14CE  1003               	clrc
  5470     14CF  0DAB               	rlf	___aldiv@quotient,f
  5471     14D0  0DAC               	rlf	___aldiv@quotient+1,f
  5472     14D1  0DAD               	rlf	___aldiv@quotient+2,f
  5473     14D2  0DAE               	rlf	___aldiv@quotient+3,f
  5474     14D3  0BA8               	decfsz	??___aldiv,f
  5475     14D4  2CCE               	goto	u2825
  5476     14D5                     l2405:
  5477     14D5  0823               	movf	___aldiv@divisor+3,w
  5478     14D6  0227               	subwf	___aldiv@dividend+3,w
  5479     14D7  1D03               	skipz
  5480     14D8  2CE3               	goto	u2835
  5481     14D9  0822               	movf	___aldiv@divisor+2,w
  5482     14DA  0226               	subwf	___aldiv@dividend+2,w
  5483     14DB  1D03               	skipz
  5484     14DC  2CE3               	goto	u2835
  5485     14DD  0821               	movf	___aldiv@divisor+1,w
  5486     14DE  0225               	subwf	___aldiv@dividend+1,w
  5487     14DF  1D03               	skipz
  5488     14E0  2CE3               	goto	u2835
  5489     14E1  0820               	movf	___aldiv@divisor,w
  5490     14E2  0224               	subwf	___aldiv@dividend,w
  5491     14E3                     u2835:
  5492     14E3  1C03               	skipc
  5493     14E4  2CE6               	goto	u2831
  5494     14E5  2CE7               	goto	u2830
  5495     14E6                     u2831:
  5496     14E6  2CF6               	goto	l2411
  5497     14E7                     u2830:
  5498     14E7                     l2407:
  5499     14E7  0820               	movf	___aldiv@divisor,w
  5500     14E8  02A4               	subwf	___aldiv@dividend,f
  5501     14E9  0821               	movf	___aldiv@divisor+1,w
  5502     14EA  1C03               	skipc
  5503     14EB  0F21               	incfsz	___aldiv@divisor+1,w
  5504     14EC  02A5               	subwf	___aldiv@dividend+1,f
  5505     14ED  0822               	movf	___aldiv@divisor+2,w
  5506     14EE  1C03               	skipc
  5507     14EF  0F22               	incfsz	___aldiv@divisor+2,w
  5508     14F0  02A6               	subwf	___aldiv@dividend+2,f
  5509     14F1  0823               	movf	___aldiv@divisor+3,w
  5510     14F2  1C03               	skipc
  5511     14F3  0F23               	incfsz	___aldiv@divisor+3,w
  5512     14F4  02A7               	subwf	___aldiv@dividend+3,f
  5513     14F5                     l2409:
  5514     14F5  142B               	bsf	___aldiv@quotient,0
  5515     14F6                     l2411:
  5516     14F6  3001               	movlw	1
  5517     14F7                     u2845:
  5518     14F7  1003               	clrc
  5519     14F8  0CA3               	rrf	___aldiv@divisor+3,f
  5520     14F9  0CA2               	rrf	___aldiv@divisor+2,f
  5521     14FA  0CA1               	rrf	___aldiv@divisor+1,f
  5522     14FB  0CA0               	rrf	___aldiv@divisor,f
  5523     14FC  3EFF               	addlw	-1
  5524     14FD  1D03               	skipz
  5525     14FE  2CF7               	goto	u2845
  5526     14FF                     l2413:
  5527     14FF  3001               	movlw	1
  5528     1500  02A9               	subwf	___aldiv@counter,f
  5529     1501  1D03               	btfss	3,2
  5530     1502  2D04               	goto	u2851
  5531     1503  2D05               	goto	u2850
  5532     1504                     u2851:
  5533     1504  2CCC               	goto	l2403
  5534     1505                     u2850:
  5535     1505                     l2415:
  5536     1505  082A               	movf	___aldiv@sign,w
  5537     1506  1903               	btfsc	3,2
  5538     1507  2D09               	goto	u2861
  5539     1508  2D0A               	goto	u2860
  5540     1509                     u2861:
  5541     1509  2D15               	goto	l2419
  5542     150A                     u2860:
  5543     150A                     l2417:
  5544     150A  09AB               	comf	___aldiv@quotient,f
  5545     150B  09AC               	comf	___aldiv@quotient+1,f
  5546     150C  09AD               	comf	___aldiv@quotient+2,f
  5547     150D  09AE               	comf	___aldiv@quotient+3,f
  5548     150E  0AAB               	incf	___aldiv@quotient,f
  5549     150F  1903               	skipnz
  5550     1510  0AAC               	incf	___aldiv@quotient+1,f
  5551     1511  1903               	skipnz
  5552     1512  0AAD               	incf	___aldiv@quotient+2,f
  5553     1513  1903               	skipnz
  5554     1514  0AAE               	incf	___aldiv@quotient+3,f
  5555     1515                     l2419:
  5556     1515  082E               	movf	___aldiv@quotient+3,w
  5557     1516  00A3               	movwf	?___aldiv+3
  5558     1517  082D               	movf	___aldiv@quotient+2,w
  5559     1518  00A2               	movwf	?___aldiv+2
  5560     1519  082C               	movf	___aldiv@quotient+1,w
  5561     151A  00A1               	movwf	?___aldiv+1
  5562     151B  082B               	movf	___aldiv@quotient,w
  5563     151C  00A0               	movwf	?___aldiv
  5564     151D                     l363:
  5565     151D  0008               	return
  5566     151E                     __end_of___aldiv:
  5567                           
  5568                           	psect	text15
  5569     1282                     __ptext15:	
  5570 ;; *************** function _ctoa *****************
  5571 ;; Defined at:
  5572 ;;		line 476 in file "C:\Program Files\Microchip\xc8\v3.00\pic\sources\c99\common\doprnt.c"
  5573 ;; Parameters:    Size  Location     Type
  5574 ;;  fp              2   13[BANK0 ] PTR struct _IO_FILE
  5575 ;;		 -> sprintf@f(11), 
  5576 ;;  c               1   15[BANK0 ] unsigned char 
  5577 ;; Auto vars:     Size  Location     Type
  5578 ;;  w               2   20[BANK0 ] int 
  5579 ;;  l               2   18[BANK0 ] int 
  5580 ;; Return value:  Size  Location     Type
  5581 ;;                  1    wreg      void 
  5582 ;; Registers used:
  5583 ;;		wreg, fsr0l, fsr0h, status,2, status,0, pclath, cstack
  5584 ;; Tracked objects:
  5585 ;;		On entry : 0/0
  5586 ;;		On exit  : 0/0
  5587 ;;		Unchanged: 0/0
  5588 ;; Data sizes:     COMMON   BANK0   BANK1   BANK3   BANK2
  5589 ;;      Params:         0       3       0       0       0
  5590 ;;      Locals:         0       4       0       0       0
  5591 ;;      Temps:          0       2       0       0       0
  5592 ;;      Totals:         0       9       0       0       0
  5593 ;;Total ram usage:        9 bytes
  5594 ;; Hardware stack levels used: 1
  5595 ;; Hardware stack levels required when called: 3
  5596 ;; This function calls:
  5597 ;;		_fputc
  5598 ;; This function is called by:
  5599 ;;		_vfpfcnvrt
  5600 ;; This function uses a non-reentrant model
  5601 ;;
  5602                           
  5603     1282                     _ctoa:	
  5604                           ;psect for function _ctoa
  5605                           
  5606     1282                     l2499:	
  5607                           ;incstack = 0
  5608                           ; Regs used in _ctoa: [wreg-fsr0h+status,2+status,0+pclath+cstack]
  5609                           
  5610                           
  5611                           ;C:\Program Files\Microchip\xc8\v3.00\pic\sources\c99\common\doprnt.c: 476: static void 
      +                          ctoa(FILE *fp, char c);C:\Program Files\Microchip\xc8\v3.00\pic\sources\c99\common\doprn
      +                          t.c: 477: {;C:\Program Files\Microchip\xc8\v3.00\pic\sources\c99\common\doprnt.c: 478:  
      +                             int l,w;;C:\Program Files\Microchip\xc8\v3.00\pic\sources\c99\common\doprnt.c: 481:  
      +                             w = width ? width - 1 : width;
  5612     1282  0878               	movf	_width,w
  5613     1283  0479               	iorwf	_width+1,w
  5614     1284  1D03               	btfss	3,2
  5615     1285  2A87               	goto	u3071
  5616     1286  2A88               	goto	u3070
  5617     1287                     u3071:
  5618     1287  2A8F               	goto	l2503
  5619     1288                     u3070:
  5620     1288                     l2501:
  5621     1288  0879               	movf	_width+1,w
  5622     1289  1283               	bcf	3,5	;RP0=0, select bank0
  5623     128A  1303               	bcf	3,6	;RP1=0, select bank0
  5624     128B  00B5               	movwf	ctoa@w+1
  5625     128C  0878               	movf	_width,w
  5626     128D  00B4               	movwf	ctoa@w
  5627     128E  2A99               	goto	l2505
  5628     128F                     l2503:
  5629     128F  0878               	movf	_width,w
  5630     1290  3EFF               	addlw	255
  5631     1291  1283               	bcf	3,5	;RP0=0, select bank0
  5632     1292  1303               	bcf	3,6	;RP1=0, select bank0
  5633     1293  00B4               	movwf	ctoa@w
  5634     1294  0879               	movf	_width+1,w
  5635     1295  1803               	skipnc
  5636     1296  3E01               	addlw	1
  5637     1297  3EFF               	addlw	255
  5638     1298  00B5               	movwf	ctoa@w+1
  5639     1299                     l2505:
  5640                           
  5641                           ;C:\Program Files\Microchip\xc8\v3.00\pic\sources\c99\common\doprnt.c: 485:     if (flag
      +                          s & (1 << 0)) {
  5642     1299  1C7C               	btfss	_flags,0
  5643     129A  2A9C               	goto	u3081
  5644     129B  2A9D               	goto	u3080
  5645     129C                     u3081:
  5646     129C  2AAD               	goto	l2509
  5647     129D                     u3080:
  5648     129D                     l2507:
  5649                           
  5650                           ;C:\Program Files\Microchip\xc8\v3.00\pic\sources\c99\common\doprnt.c: 486:         fput
      +                          c(c, fp);
  5651     129D  082F               	movf	ctoa@c,w
  5652     129E  00B0               	movwf	??_ctoa
  5653     129F  01B1               	clrf	??_ctoa+1
  5654     12A0  0830               	movf	??_ctoa,w
  5655     12A1  00A0               	movwf	fputc@c
  5656     12A2  0831               	movf	??_ctoa+1,w
  5657     12A3  00A1               	movwf	fputc@c+1
  5658     12A4  082D               	movf	ctoa@fp,w
  5659     12A5  00A2               	movwf	fputc@fp
  5660     12A6  082E               	movf	ctoa@fp+1,w
  5661     12A7  00A3               	movwf	fputc@fp+1
  5662     12A8  160A  118A  251E  160A  118A  	fcall	_fputc
  5663     12AD                     l2509:
  5664                           
  5665                           ;C:\Program Files\Microchip\xc8\v3.00\pic\sources\c99\common\doprnt.c: 491:     w = (w <
      +                           0) ? 0 : w;
  5666     12AD  1283               	bcf	3,5	;RP0=0, select bank0
  5667     12AE  1303               	bcf	3,6	;RP1=0, select bank0
  5668     12AF  1BB5               	btfsc	ctoa@w+1,7
  5669     12B0  2AB2               	goto	u3091
  5670     12B1  2AB3               	goto	u3090
  5671     12B2                     u3091:
  5672     12B2  2AB4               	goto	l2513
  5673     12B3                     u3090:
  5674     12B3  2AB6               	goto	l787
  5675     12B4                     l2513:
  5676     12B4  01B4               	clrf	ctoa@w
  5677     12B5  01B5               	clrf	ctoa@w+1
  5678     12B6                     l787:
  5679                           
  5680                           ;C:\Program Files\Microchip\xc8\v3.00\pic\sources\c99\common\doprnt.c: 492:     l = 0;
  5681     12B6  01B2               	clrf	ctoa@l
  5682     12B7  01B3               	clrf	ctoa@l+1
  5683                           
  5684                           ;C:\Program Files\Microchip\xc8\v3.00\pic\sources\c99\common\doprnt.c: 493:     while (l
      +                           < w) {
  5685     12B8  2AD0               	goto	l2519
  5686     12B9                     l2515:
  5687                           
  5688                           ;C:\Program Files\Microchip\xc8\v3.00\pic\sources\c99\common\doprnt.c: 494:         fput
      +                          c(' ', fp);
  5689     12B9  3020               	movlw	32
  5690     12BA  1283               	bcf	3,5	;RP0=0, select bank0
  5691     12BB  1303               	bcf	3,6	;RP1=0, select bank0
  5692     12BC  00A0               	movwf	fputc@c
  5693     12BD  3000               	movlw	0
  5694     12BE  00A1               	movwf	fputc@c+1
  5695     12BF  082D               	movf	ctoa@fp,w
  5696     12C0  00A2               	movwf	fputc@fp
  5697     12C1  082E               	movf	ctoa@fp+1,w
  5698     12C2  00A3               	movwf	fputc@fp+1
  5699     12C3  160A  118A  251E  160A  118A  	fcall	_fputc
  5700     12C8                     l2517:
  5701                           
  5702                           ;C:\Program Files\Microchip\xc8\v3.00\pic\sources\c99\common\doprnt.c: 495:         ++l;
  5703     12C8  3001               	movlw	1
  5704     12C9  1283               	bcf	3,5	;RP0=0, select bank0
  5705     12CA  1303               	bcf	3,6	;RP1=0, select bank0
  5706     12CB  07B2               	addwf	ctoa@l,f
  5707     12CC  1803               	skipnc
  5708     12CD  0AB3               	incf	ctoa@l+1,f
  5709     12CE  3000               	movlw	0
  5710     12CF  07B3               	addwf	ctoa@l+1,f
  5711     12D0                     l2519:
  5712                           
  5713                           ;C:\Program Files\Microchip\xc8\v3.00\pic\sources\c99\common\doprnt.c: 493:     while (l
      +                           < w) {
  5714     12D0  0833               	movf	ctoa@l+1,w
  5715     12D1  3A80               	xorlw	128
  5716     12D2  00B0               	movwf	??_ctoa
  5717     12D3  0835               	movf	ctoa@w+1,w
  5718     12D4  3A80               	xorlw	128
  5719     12D5  0230               	subwf	??_ctoa,w
  5720     12D6  1D03               	skipz
  5721     12D7  2ADA               	goto	u3105
  5722     12D8  0834               	movf	ctoa@w,w
  5723     12D9  0232               	subwf	ctoa@l,w
  5724     12DA                     u3105:
  5725     12DA  1C03               	skipc
  5726     12DB  2ADD               	goto	u3101
  5727     12DC  2ADE               	goto	u3100
  5728     12DD                     u3101:
  5729     12DD  2AB9               	goto	l2515
  5730     12DE                     u3100:
  5731     12DE                     l790:
  5732                           
  5733                           ;C:\Program Files\Microchip\xc8\v3.00\pic\sources\c99\common\doprnt.c: 499:     if (!(fl
      +                          ags & (1 << 0))) {
  5734     12DE  187C               	btfsc	_flags,0
  5735     12DF  2AE1               	goto	u3111
  5736     12E0  2AE2               	goto	u3110
  5737     12E1                     u3111:
  5738     12E1  2AF4               	goto	l792
  5739     12E2                     u3110:
  5740     12E2                     l2521:
  5741                           
  5742                           ;C:\Program Files\Microchip\xc8\v3.00\pic\sources\c99\common\doprnt.c: 501:         fput
      +                          c(c, fp);
  5743     12E2  1283               	bcf	3,5	;RP0=0, select bank0
  5744     12E3  1303               	bcf	3,6	;RP1=0, select bank0
  5745     12E4  082F               	movf	ctoa@c,w
  5746     12E5  00B0               	movwf	??_ctoa
  5747     12E6  01B1               	clrf	??_ctoa+1
  5748     12E7  0830               	movf	??_ctoa,w
  5749     12E8  00A0               	movwf	fputc@c
  5750     12E9  0831               	movf	??_ctoa+1,w
  5751     12EA  00A1               	movwf	fputc@c+1
  5752     12EB  082D               	movf	ctoa@fp,w
  5753     12EC  00A2               	movwf	fputc@fp
  5754     12ED  082E               	movf	ctoa@fp+1,w
  5755     12EE  00A3               	movwf	fputc@fp+1
  5756     12EF  160A  118A  251E  160A  118A  	fcall	_fputc
  5757     12F4                     l792:
  5758     12F4  0008               	return
  5759     12F5                     __end_of_ctoa:
  5760                           
  5761                           	psect	text16
  5762     151E                     __ptext16:	
  5763 ;; *************** function _fputc *****************
  5764 ;; Defined at:
  5765 ;;		line 8 in file "C:\Program Files\Microchip\xc8\v3.00\pic\sources\c99\common\nf_fputc.c"
  5766 ;; Parameters:    Size  Location     Type
  5767 ;;  c               2    0[BANK0 ] int 
  5768 ;;  fp              2    2[BANK0 ] PTR struct _IO_FILE
  5769 ;;		 -> sprintf@f(11), 
  5770 ;; Auto vars:     Size  Location     Type
  5771 ;;		None
  5772 ;; Return value:  Size  Location     Type
  5773 ;;                  2    0[BANK0 ] int 
  5774 ;; Registers used:
  5775 ;;		wreg, fsr0l, fsr0h, status,2, status,0, pclath, cstack
  5776 ;; Tracked objects:
  5777 ;;		On entry : 0/0
  5778 ;;		On exit  : 0/0
  5779 ;;		Unchanged: 0/0
  5780 ;; Data sizes:     COMMON   BANK0   BANK1   BANK3   BANK2
  5781 ;;      Params:         0       4       0       0       0
  5782 ;;      Locals:         0       0       0       0       0
  5783 ;;      Temps:          0       9       0       0       0
  5784 ;;      Totals:         0      13       0       0       0
  5785 ;;Total ram usage:       13 bytes
  5786 ;; Hardware stack levels used: 1
  5787 ;; Hardware stack levels required when called: 2
  5788 ;; This function calls:
  5789 ;;		_putch
  5790 ;; This function is called by:
  5791 ;;		_pad
  5792 ;;		_ctoa
  5793 ;;		_vfpfcnvrt
  5794 ;;		_fputs
  5795 ;; This function uses a non-reentrant model
  5796 ;;
  5797                           
  5798     151E                     _fputc:	
  5799                           ;psect for function _fputc
  5800                           
  5801     151E                     l2323:	
  5802                           ;incstack = 0
  5803 ;; hardware stack exceeded
  5804                           ; Regs used in _fputc: [wreg-fsr0h+status,2+status,0+pclath+cstack]
  5805                           
  5806     151E  1283               	bcf	3,5	;RP0=0, select bank0
  5807     151F  1303               	bcf	3,6	;RP1=0, select bank0
  5808     1520  0822               	movf	fputc@fp,w
  5809     1521  0423               	iorwf	fputc@fp+1,w
  5810     1522  1903               	btfsc	3,2
  5811     1523  2D25               	goto	u2601
  5812     1524  2D26               	goto	u2600
  5813     1525                     u2601:
  5814     1525  2D2C               	goto	l2327
  5815     1526                     u2600:
  5816     1526                     l2325:
  5817     1526  0822               	movf	fputc@fp,w
  5818     1527  0423               	iorwf	fputc@fp+1,w
  5819     1528  1D03               	btfss	3,2
  5820     1529  2D2B               	goto	u2611
  5821     152A  2D2C               	goto	u2610
  5822     152B                     u2611:
  5823     152B  2D33               	goto	l2329
  5824     152C                     u2610:
  5825     152C                     l2327:
  5826     152C  0820               	movf	fputc@c,w
  5827     152D  120A  118A  27FC  160A  118A  	fcall	_putch
  5828     1532  2DBD               	goto	l888
  5829     1533                     l2329:
  5830     1533  0822               	movf	fputc@fp,w
  5831     1534  3E09               	addlw	9
  5832     1535  00A4               	movwf	??_fputc
  5833     1536  0823               	movf	fputc@fp+1,w
  5834     1537  1803               	skipnc
  5835     1538  3E01               	addlw	1
  5836     1539  3E00               	addlw	0
  5837     153A  00A5               	movwf	??_fputc+1
  5838     153B  0824               	movf	??_fputc,w
  5839     153C  0084               	movwf	4
  5840     153D  1783               	bsf	3,7
  5841     153E  1C25               	btfss	??_fputc+1,0
  5842     153F  1383               	bcf	3,7
  5843     1540  0800               	movf	0,w
  5844     1541  00A6               	movwf	??_fputc+2
  5845     1542  0A84               	incf	4,f
  5846     1543  0800               	movf	0,w
  5847     1544  00A7               	movwf	??_fputc+3
  5848     1545  0826               	movf	??_fputc+2,w
  5849     1546  0427               	iorwf	??_fputc+3,w
  5850     1547  1903               	btfsc	3,2
  5851     1548  2D4A               	goto	u2621
  5852     1549  2D4B               	goto	u2620
  5853     154A                     u2621:
  5854     154A  2D7D               	goto	l2333
  5855     154B                     u2620:
  5856     154B                     l2331:
  5857     154B  0822               	movf	fputc@fp,w
  5858     154C  3E09               	addlw	9
  5859     154D  00A4               	movwf	??_fputc
  5860     154E  0823               	movf	fputc@fp+1,w
  5861     154F  1803               	skipnc
  5862     1550  3E01               	addlw	1
  5863     1551  3E00               	addlw	0
  5864     1552  00A5               	movwf	??_fputc+1
  5865     1553  0824               	movf	??_fputc,w
  5866     1554  0084               	movwf	4
  5867     1555  1783               	bsf	3,7
  5868     1556  1C25               	btfss	??_fputc+1,0
  5869     1557  1383               	bcf	3,7
  5870     1558  0800               	movf	0,w
  5871     1559  00A6               	movwf	??_fputc+2
  5872     155A  0A84               	incf	4,f
  5873     155B  0800               	movf	0,w
  5874     155C  00A7               	movwf	??_fputc+3
  5875     155D  0822               	movf	fputc@fp,w
  5876     155E  3E02               	addlw	2
  5877     155F  00A8               	movwf	??_fputc+4
  5878     1560  0823               	movf	fputc@fp+1,w
  5879     1561  1803               	skipnc
  5880     1562  3E01               	addlw	1
  5881     1563  3E00               	addlw	0
  5882     1564  00A9               	movwf	??_fputc+5
  5883     1565  0828               	movf	??_fputc+4,w
  5884     1566  0084               	movwf	4
  5885     1567  1783               	bsf	3,7
  5886     1568  1C29               	btfss	??_fputc+5,0
  5887     1569  1383               	bcf	3,7
  5888     156A  0800               	movf	0,w
  5889     156B  00AA               	movwf	??_fputc+6
  5890     156C  0A84               	incf	4,f
  5891     156D  0800               	movf	0,w
  5892     156E  00AB               	movwf	??_fputc+7
  5893     156F  082B               	movf	??_fputc+7,w
  5894     1570  3A80               	xorlw	128
  5895     1571  00AC               	movwf	??_fputc+8
  5896     1572  0827               	movf	??_fputc+3,w
  5897     1573  3A80               	xorlw	128
  5898     1574  022C               	subwf	??_fputc+8,w
  5899     1575  1D03               	skipz
  5900     1576  2D79               	goto	u2635
  5901     1577  0826               	movf	??_fputc+2,w
  5902     1578  022A               	subwf	??_fputc+6,w
  5903     1579                     u2635:
  5904     1579  1803               	skipnc
  5905     157A  2D7C               	goto	u2631
  5906     157B  2D7D               	goto	u2630
  5907     157C                     u2631:
  5908     157C  2DBD               	goto	l888
  5909     157D                     u2630:
  5910     157D                     l2333:
  5911     157D  1283               	bcf	3,5	;RP0=0, select bank0
  5912     157E  1303               	bcf	3,6	;RP1=0, select bank0
  5913     157F  0822               	movf	fputc@fp,w
  5914     1580  0084               	movwf	4
  5915     1581  1783               	bsf	3,7
  5916     1582  1C23               	btfss	fputc@fp+1,0
  5917     1583  1383               	bcf	3,7
  5918     1584  0800               	movf	0,w
  5919     1585  00A4               	movwf	??_fputc
  5920     1586  0A84               	incf	4,f
  5921     1587  0800               	movf	0,w
  5922     1588  00A5               	movwf	??_fputc+1
  5923     1589  0822               	movf	fputc@fp,w
  5924     158A  3E02               	addlw	2
  5925     158B  00A6               	movwf	??_fputc+2
  5926     158C  0823               	movf	fputc@fp+1,w
  5927     158D  1803               	skipnc
  5928     158E  3E01               	addlw	1
  5929     158F  3E00               	addlw	0
  5930     1590  00A7               	movwf	??_fputc+3
  5931     1591  0826               	movf	??_fputc+2,w
  5932     1592  0084               	movwf	4
  5933     1593  1783               	bsf	3,7
  5934     1594  1C27               	btfss	??_fputc+3,0
  5935     1595  1383               	bcf	3,7
  5936     1596  0800               	movf	0,w
  5937     1597  0724               	addwf	??_fputc,w
  5938     1598  00A9               	movwf	??_fputc+5
  5939     1599  0825               	movf	??_fputc+1,w
  5940     159A  00A8               	movwf	??_fputc+4
  5941     159B  1803               	skipnc
  5942     159C  0AA8               	incf	??_fputc+4,f
  5943     159D  1F80               	btfss	0,7
  5944     159E  2DA0               	goto	u2640
  5945     159F  03A8               	decf	??_fputc+4,f
  5946     15A0                     u2640:
  5947     15A0  1283               	bcf	3,5	;RP0=0, select bank0
  5948     15A1  1303               	bcf	3,6	;RP1=0, select bank0
  5949     15A2  0828               	movf	??_fputc+4,w
  5950     15A3  00AA               	movwf	??_fputc+6
  5951     15A4  0829               	movf	??_fputc+5,w
  5952     15A5  0084               	movwf	4
  5953     15A6  1783               	bsf	3,7
  5954     15A7  1C2A               	btfss	??_fputc+6,0
  5955     15A8  1383               	bcf	3,7
  5956     15A9  0820               	movf	fputc@c,w
  5957     15AA  0080               	movwf	0
  5958     15AB  0822               	movf	fputc@fp,w
  5959     15AC  3E02               	addlw	2
  5960     15AD  00A4               	movwf	??_fputc
  5961     15AE  0823               	movf	fputc@fp+1,w
  5962     15AF  1803               	skipnc
  5963     15B0  3E01               	addlw	1
  5964     15B1  3E00               	addlw	0
  5965     15B2  00A5               	movwf	??_fputc+1
  5966     15B3  0824               	movf	??_fputc,w
  5967     15B4  0084               	movwf	4
  5968     15B5  1783               	bsf	3,7
  5969     15B6  1C25               	btfss	??_fputc+1,0
  5970     15B7  1383               	bcf	3,7
  5971     15B8  3001               	movlw	1
  5972     15B9  0780               	addwf	0,f
  5973     15BA  0A84               	incf	4,f
  5974     15BB  1803               	skipnc
  5975     15BC  0A80               	incf	0,f
  5976     15BD                     l888:
  5977     15BD  0008               	return
  5978     15BE                     __end_of_fputc:
  5979                           
  5980                           	psect	text17
  5981     07FC                     __ptext17:	
  5982 ;; *************** function _putch *****************
  5983 ;; Defined at:
  5984 ;;		line 7 in file "C:\Program Files\Microchip\xc8\v3.00\pic\sources\c99\common\putch.c"
  5985 ;; Parameters:    Size  Location     Type
  5986 ;;  c               1    wreg     unsigned char 
  5987 ;; Auto vars:     Size  Location     Type
  5988 ;;  c               1    0[COMMON] unsigned char 
  5989 ;; Return value:  Size  Location     Type
  5990 ;;                  1    wreg      void 
  5991 ;; Registers used:
  5992 ;;		wreg
  5993 ;; Tracked objects:
  5994 ;;		On entry : 0/0
  5995 ;;		On exit  : 0/0
  5996 ;;		Unchanged: 0/0
  5997 ;; Data sizes:     COMMON   BANK0   BANK1   BANK3   BANK2
  5998 ;;      Params:         0       0       0       0       0
  5999 ;;      Locals:         0       0       0       0       0
  6000 ;;      Temps:          0       0       0       0       0
  6001 ;;      Totals:         0       0       0       0       0
  6002 ;;Total ram usage:        0 bytes
  6003 ;; Hardware stack levels used: 1
  6004 ;; Hardware stack levels required when called: 1
  6005 ;; This function calls:
  6006 ;;		Nothing
  6007 ;; This function is called by:
  6008 ;;		_fputc
  6009 ;; This function uses a non-reentrant model
  6010 ;;
  6011                           
  6012     07FC                     _putch:	
  6013                           ;psect for function _putch
  6014                           
  6015     07FC                     l899:	
  6016                           ;incstack = 0
  6017 ;; hardware stack exceeded
  6018                           ; Regs used in _putch: [wreg]
  6019                           
  6020     07FC  0008               	return
  6021     07FD                     __end_of_putch:
  6022                           
  6023                           	psect	text18
  6024     1F7C                     __ptext18:	
  6025 ;; *************** function _lcd_intial_4bits *****************
  6026 ;; Defined at:
  6027 ;;		line 51 in file "LCD_LIB_4bits.c"
  6028 ;; Parameters:    Size  Location     Type
  6029 ;;		None
  6030 ;; Auto vars:     Size  Location     Type
  6031 ;;		None
  6032 ;; Return value:  Size  Location     Type
  6033 ;;                  1    wreg      void 
  6034 ;; Registers used:
  6035 ;;		wreg, status,2, status,0, pclath, cstack
  6036 ;; Tracked objects:
  6037 ;;		On entry : 0/0
  6038 ;;		On exit  : 0/0
  6039 ;;		Unchanged: 0/0
  6040 ;; Data sizes:     COMMON   BANK0   BANK1   BANK3   BANK2
  6041 ;;      Params:         0       0       0       0       0
  6042 ;;      Locals:         0       0       0       0       0
  6043 ;;      Temps:          0       2       0       0       0
  6044 ;;      Totals:         0       2       0       0       0
  6045 ;;Total ram usage:        2 bytes
  6046 ;; Hardware stack levels used: 1
  6047 ;; Hardware stack levels required when called: 3
  6048 ;; This function calls:
  6049 ;;		_lcd_cmd
  6050 ;; This function is called by:
  6051 ;;		_main
  6052 ;; This function uses a non-reentrant model
  6053 ;;
  6054                           
  6055     1F7C                     _lcd_intial_4bits:	
  6056                           ;psect for function _lcd_intial_4bits
  6057                           
  6058     1F7C                     l3329:	
  6059                           ;incstack = 0
  6060                           ; Regs used in _lcd_intial_4bits: [wreg+status,2+status,0+pclath+cstack]
  6061                           
  6062                           
  6063                           ;LCD_LIB_4bits.c: 53:     TRISB=0x00;
  6064     1F7C  1683               	bsf	3,5	;RP0=1, select bank1
  6065     1F7D  1303               	bcf	3,6	;RP1=0, select bank1
  6066     1F7E  0186               	clrf	6	;volatile
  6067                           
  6068                           ;LCD_LIB_4bits.c: 54:     PORTB=0x00;
  6069     1F7F  1283               	bcf	3,5	;RP0=0, select bank0
  6070     1F80  1303               	bcf	3,6	;RP1=0, select bank0
  6071     1F81  0186               	clrf	6	;volatile
  6072     1F82                     l3331:
  6073                           
  6074                           ;LCD_LIB_4bits.c: 55:     _delay((unsigned long)((20)*(4000000/4000.0)));
  6075     1F82  301A               	movlw	26
  6076     1F83  1283               	bcf	3,5	;RP0=0, select bank0
  6077     1F84  1303               	bcf	3,6	;RP1=0, select bank0
  6078     1F85  00A5               	movwf	??_lcd_intial_4bits+1
  6079     1F86  30F7               	movlw	247
  6080     1F87  00A4               	movwf	??_lcd_intial_4bits
  6081     1F88                     u5167:
  6082     1F88  0BA4               	decfsz	??_lcd_intial_4bits,f
  6083     1F89  2F88               	goto	u5167
  6084     1F8A  0BA5               	decfsz	??_lcd_intial_4bits+1,f
  6085     1F8B  2F88               	goto	u5167
  6086     1F8C  2F8D               	nop2
  6087     1F8D                     l3333:
  6088                           
  6089                           ;LCD_LIB_4bits.c: 56:   lcd_cmd(0x33);
  6090     1F8D  3033               	movlw	51
  6091     1F8E  160A  158A  2740  160A  158A  	fcall	_lcd_cmd
  6092     1F93                     l3335:
  6093                           
  6094                           ;LCD_LIB_4bits.c: 57:   lcd_cmd(0x32);
  6095     1F93  3032               	movlw	50
  6096     1F94  160A  158A  2740  160A  158A  	fcall	_lcd_cmd
  6097     1F99                     l3337:
  6098                           
  6099                           ;LCD_LIB_4bits.c: 58:   lcd_cmd(0x28);
  6100     1F99  3028               	movlw	40
  6101     1F9A  160A  158A  2740  160A  158A  	fcall	_lcd_cmd
  6102     1F9F                     l3339:
  6103                           
  6104                           ;LCD_LIB_4bits.c: 59:   lcd_cmd(0x0C);
  6105     1F9F  300C               	movlw	12
  6106     1FA0  160A  158A  2740  160A  158A  	fcall	_lcd_cmd
  6107     1FA5                     l3341:
  6108                           
  6109                           ;LCD_LIB_4bits.c: 60:   lcd_cmd(0x06);
  6110     1FA5  3006               	movlw	6
  6111     1FA6  160A  158A  2740  160A  158A  	fcall	_lcd_cmd
  6112     1FAB                     l3343:
  6113                           
  6114                           ;LCD_LIB_4bits.c: 61:   lcd_cmd(0x01);
  6115     1FAB  3001               	movlw	1
  6116     1FAC  160A  158A  2740  160A  158A  	fcall	_lcd_cmd
  6117     1FB1                     l3345:
  6118                           
  6119                           ;LCD_LIB_4bits.c: 62:   lcd_cmd(0x80);
  6120     1FB1  3080               	movlw	128
  6121     1FB2  160A  158A  2740  160A  158A  	fcall	_lcd_cmd
  6122     1FB7                     l52:
  6123     1FB7  0008               	return
  6124     1FB8                     __end_of_lcd_intial_4bits:
  6125                           
  6126                           	psect	text19
  6127     1F40                     __ptext19:	
  6128 ;; *************** function _lcd_cmd *****************
  6129 ;; Defined at:
  6130 ;;		line 28 in file "LCD_LIB_4bits.c"
  6131 ;; Parameters:    Size  Location     Type
  6132 ;;  cmd             1    wreg     unsigned char 
  6133 ;; Auto vars:     Size  Location     Type
  6134 ;;  cmd             1    3[BANK0 ] unsigned char 
  6135 ;; Return value:  Size  Location     Type
  6136 ;;                  1    wreg      void 
  6137 ;; Registers used:
  6138 ;;		wreg, status,2, status,0, pclath, cstack
  6139 ;; Tracked objects:
  6140 ;;		On entry : 0/0
  6141 ;;		On exit  : 0/0
  6142 ;;		Unchanged: 0/0
  6143 ;; Data sizes:     COMMON   BANK0   BANK1   BANK3   BANK2
  6144 ;;      Params:         0       0       0       0       0
  6145 ;;      Locals:         0       1       0       0       0
  6146 ;;      Temps:          0       2       0       0       0
  6147 ;;      Totals:         0       3       0       0       0
  6148 ;;Total ram usage:        3 bytes
  6149 ;; Hardware stack levels used: 1
  6150 ;; Hardware stack levels required when called: 2
  6151 ;; This function calls:
  6152 ;;		_enable
  6153 ;; This function is called by:
  6154 ;;		_lcd_intial_4bits
  6155 ;; This function uses a non-reentrant model
  6156 ;;
  6157                           
  6158     1F40                     _lcd_cmd:	
  6159                           ;psect for function _lcd_cmd
  6160                           
  6161                           
  6162                           ;incstack = 0
  6163                           ; Regs used in _lcd_cmd: [wreg+status,2+status,0+pclath+cstack]
  6164                           ;lcd_cmd@cmd stored from wreg
  6165     1F40  1283               	bcf	3,5	;RP0=0, select bank0
  6166     1F41  1303               	bcf	3,6	;RP1=0, select bank0
  6167     1F42  00A3               	movwf	lcd_cmd@cmd
  6168     1F43                     l2733:
  6169                           
  6170                           ;LCD_LIB_4bits.c: 28: void lcd_cmd(unsigned char cmd);LCD_LIB_4bits.c: 29: {;LCD_LIB_4bi
      +                          ts.c: 30:     PORTB&=0xF0;
  6171     1F43  30F0               	movlw	240
  6172     1F44  0586               	andwf	6,f	;volatile
  6173                           
  6174                           ;LCD_LIB_4bits.c: 31:     PORTB|=((cmd>>4) & 0x0F);
  6175     1F45  0823               	movf	lcd_cmd@cmd,w
  6176     1F46  00A1               	movwf	??_lcd_cmd
  6177     1F47  3004               	movlw	4
  6178     1F48                     u3395:
  6179     1F48  1003               	clrc
  6180     1F49  0CA1               	rrf	??_lcd_cmd,f
  6181     1F4A  3EFF               	addlw	-1
  6182     1F4B  1D03               	skipz
  6183     1F4C  2F48               	goto	u3395
  6184     1F4D  0821               	movf	??_lcd_cmd,w
  6185     1F4E  390F               	andlw	15
  6186     1F4F  0486               	iorwf	6,f	;volatile
  6187     1F50                     l2735:
  6188                           
  6189                           ;LCD_LIB_4bits.c: 32:     PORTBbits.RB4=0;
  6190     1F50  1206               	bcf	6,4	;volatile
  6191     1F51                     l2737:
  6192                           
  6193                           ;LCD_LIB_4bits.c: 33:     PORTBbits.RB6=0;
  6194     1F51  1306               	bcf	6,6	;volatile
  6195     1F52                     l2739:
  6196                           
  6197                           ;LCD_LIB_4bits.c: 34:     enable();
  6198     1F52  160A  158A  2613  160A  158A  	fcall	_enable
  6199     1F57                     l2741:
  6200                           
  6201                           ;LCD_LIB_4bits.c: 35:     _delay((unsigned long)((5)*(4000000/4000.0)));
  6202     1F57  3007               	movlw	7
  6203     1F58  1283               	bcf	3,5	;RP0=0, select bank0
  6204     1F59  1303               	bcf	3,6	;RP1=0, select bank0
  6205     1F5A  00A2               	movwf	??_lcd_cmd+1
  6206     1F5B  307C               	movlw	124
  6207     1F5C  00A1               	movwf	??_lcd_cmd
  6208     1F5D                     u5177:
  6209     1F5D  0BA1               	decfsz	??_lcd_cmd,f
  6210     1F5E  2F5D               	goto	u5177
  6211     1F5F  0BA2               	decfsz	??_lcd_cmd+1,f
  6212     1F60  2F5D               	goto	u5177
  6213     1F61  0000               	nop
  6214     1F62                     l2743:
  6215                           
  6216                           ;LCD_LIB_4bits.c: 36:     PORTB&=0xF0;
  6217     1F62  30F0               	movlw	240
  6218     1F63  1283               	bcf	3,5	;RP0=0, select bank0
  6219     1F64  1303               	bcf	3,6	;RP1=0, select bank0
  6220     1F65  0586               	andwf	6,f	;volatile
  6221     1F66                     l2745:
  6222                           
  6223                           ;LCD_LIB_4bits.c: 37:     PORTB|=(cmd & 0x0F);
  6224     1F66  0823               	movf	lcd_cmd@cmd,w
  6225     1F67  390F               	andlw	15
  6226     1F68  0486               	iorwf	6,f	;volatile
  6227     1F69                     l2747:
  6228                           
  6229                           ;LCD_LIB_4bits.c: 38:     PORTBbits.RB4=0;
  6230     1F69  1206               	bcf	6,4	;volatile
  6231     1F6A                     l2749:
  6232                           
  6233                           ;LCD_LIB_4bits.c: 39:     PORTBbits.RB6=0;
  6234     1F6A  1306               	bcf	6,6	;volatile
  6235     1F6B                     l2751:
  6236                           
  6237                           ;LCD_LIB_4bits.c: 40:     enable();
  6238     1F6B  160A  158A  2613  160A  158A  	fcall	_enable
  6239     1F70                     l2753:
  6240                           
  6241                           ;LCD_LIB_4bits.c: 41:     _delay((unsigned long)((5)*(4000000/4000.0)));
  6242     1F70  3007               	movlw	7
  6243     1F71  1283               	bcf	3,5	;RP0=0, select bank0
  6244     1F72  1303               	bcf	3,6	;RP1=0, select bank0
  6245     1F73  00A2               	movwf	??_lcd_cmd+1
  6246     1F74  307C               	movlw	124
  6247     1F75  00A1               	movwf	??_lcd_cmd
  6248     1F76                     u5187:
  6249     1F76  0BA1               	decfsz	??_lcd_cmd,f
  6250     1F77  2F76               	goto	u5187
  6251     1F78  0BA2               	decfsz	??_lcd_cmd+1,f
  6252     1F79  2F76               	goto	u5187
  6253     1F7A  0000               	nop
  6254     1F7B                     l43:
  6255     1F7B  0008               	return
  6256     1F7C                     __end_of_lcd_cmd:
  6257                           
  6258                           	psect	text20
  6259     1E13                     __ptext20:	
  6260 ;; *************** function _enable *****************
  6261 ;; Defined at:
  6262 ;;		line 7 in file "LCD_LIB_4bits.c"
  6263 ;; Parameters:    Size  Location     Type
  6264 ;;		None
  6265 ;; Auto vars:     Size  Location     Type
  6266 ;;		None
  6267 ;; Return value:  Size  Location     Type
  6268 ;;                  1    wreg      void 
  6269 ;; Registers used:
  6270 ;;		wreg
  6271 ;; Tracked objects:
  6272 ;;		On entry : 0/0
  6273 ;;		On exit  : 0/0
  6274 ;;		Unchanged: 0/0
  6275 ;; Data sizes:     COMMON   BANK0   BANK1   BANK3   BANK2
  6276 ;;      Params:         0       0       0       0       0
  6277 ;;      Locals:         0       0       0       0       0
  6278 ;;      Temps:          0       1       0       0       0
  6279 ;;      Totals:         0       1       0       0       0
  6280 ;;Total ram usage:        1 bytes
  6281 ;; Hardware stack levels used: 1
  6282 ;; Hardware stack levels required when called: 1
  6283 ;; This function calls:
  6284 ;;		Nothing
  6285 ;; This function is called by:
  6286 ;;		_lcd_cmd
  6287 ;;		_lcd_chr
  6288 ;; This function uses a non-reentrant model
  6289 ;;
  6290                           
  6291     1E13                     _enable:	
  6292                           ;psect for function _enable
  6293                           
  6294     1E13                     l2617:	
  6295                           ;incstack = 0
  6296                           ; Regs used in _enable: [wreg]
  6297                           
  6298                           
  6299                           ;LCD_LIB_4bits.c: 9:     PORTBbits.RB5=1;
  6300     1E13  1283               	bcf	3,5	;RP0=0, select bank0
  6301     1E14  1303               	bcf	3,6	;RP1=0, select bank0
  6302     1E15  1686               	bsf	6,5	;volatile
  6303     1E16                     l2619:
  6304                           
  6305                           ;LCD_LIB_4bits.c: 10:     _delay((unsigned long)((100)*(4000000/4000000.0)));
  6306     1E16  3020               	movlw	32
  6307     1E17  1283               	bcf	3,5	;RP0=0, select bank0
  6308     1E18  1303               	bcf	3,6	;RP1=0, select bank0
  6309     1E19  00A0               	movwf	??_enable
  6310     1E1A                     u5197:
  6311     1E1A  0BA0               	decfsz	??_enable,f
  6312     1E1B  2E1A               	goto	u5197
  6313     1E1C  0000               	nop
  6314     1E1D                     l2621:
  6315                           
  6316                           ;LCD_LIB_4bits.c: 11:     PORTBbits.RB5=0;
  6317     1E1D  1283               	bcf	3,5	;RP0=0, select bank0
  6318     1E1E  1303               	bcf	3,6	;RP1=0, select bank0
  6319     1E1F  1286               	bcf	6,5	;volatile
  6320     1E20                     l37:
  6321     1E20  0008               	return
  6322     1E21                     __end_of_enable:
  6323                           
  6324                           	psect	text21
  6325     166E                     __ptext21:	
  6326 ;; *************** function ___xxtofl *****************
  6327 ;; Defined at:
  6328 ;;		line 10 in file "C:\Program Files\Microchip\xc8\v3.00\pic\sources\c99\common\xxtofl.c"
  6329 ;; Parameters:    Size  Location     Type
  6330 ;;  sign            1    wreg     unsigned char 
  6331 ;;  val             4    0[BANK0 ] long 
  6332 ;; Auto vars:     Size  Location     Type
  6333 ;;  sign            1    8[BANK0 ] unsigned char 
  6334 ;;  arg             4   10[BANK0 ] unsigned long 
  6335 ;;  exp             1    9[BANK0 ] unsigned char 
  6336 ;; Return value:  Size  Location     Type
  6337 ;;                  4    0[BANK0 ] unsigned char 
  6338 ;; Registers used:
  6339 ;;		wreg, status,2, status,0
  6340 ;; Tracked objects:
  6341 ;;		On entry : 0/0
  6342 ;;		On exit  : 0/0
  6343 ;;		Unchanged: 0/0
  6344 ;; Data sizes:     COMMON   BANK0   BANK1   BANK3   BANK2
  6345 ;;      Params:         0       4       0       0       0
  6346 ;;      Locals:         0       6       0       0       0
  6347 ;;      Temps:          0       4       0       0       0
  6348 ;;      Totals:         0      14       0       0       0
  6349 ;;Total ram usage:       14 bytes
  6350 ;; Hardware stack levels used: 1
  6351 ;; Hardware stack levels required when called: 1
  6352 ;; This function calls:
  6353 ;;		Nothing
  6354 ;; This function is called by:
  6355 ;;		_main
  6356 ;; This function uses a non-reentrant model
  6357 ;;
  6358                           
  6359     166E                     ___xxtofl:	
  6360                           ;psect for function ___xxtofl
  6361                           
  6362                           
  6363                           ;incstack = 0
  6364                           ; Regs used in ___xxtofl: [wreg+status,2+status,0]
  6365                           ;___xxtofl@sign stored from wreg
  6366     166E  1283               	bcf	3,5	;RP0=0, select bank0
  6367     166F  1303               	bcf	3,6	;RP1=0, select bank0
  6368     1670  00A8               	movwf	___xxtofl@sign
  6369     1671                     l3483:
  6370     1671  0828               	movf	___xxtofl@sign,w
  6371     1672  1903               	btfsc	3,2
  6372     1673  2E75               	goto	u4921
  6373     1674  2E76               	goto	u4920
  6374     1675                     u4921:
  6375     1675  2E8A               	goto	l3489
  6376     1676                     u4920:
  6377     1676                     l3485:
  6378     1676  1FA3               	btfss	___xxtofl@val+3,7
  6379     1677  2E79               	goto	u4931
  6380     1678  2E7A               	goto	u4930
  6381     1679                     u4931:
  6382     1679  2E8A               	goto	l3489
  6383     167A                     u4930:
  6384     167A                     l3487:
  6385     167A  0920               	comf	___xxtofl@val,w
  6386     167B  00AA               	movwf	___xxtofl@arg
  6387     167C  0921               	comf	___xxtofl@val+1,w
  6388     167D  00AB               	movwf	___xxtofl@arg+1
  6389     167E  0922               	comf	___xxtofl@val+2,w
  6390     167F  00AC               	movwf	___xxtofl@arg+2
  6391     1680  0923               	comf	___xxtofl@val+3,w
  6392     1681  00AD               	movwf	___xxtofl@arg+3
  6393     1682  0AAA               	incf	___xxtofl@arg,f
  6394     1683  1903               	skipnz
  6395     1684  0AAB               	incf	___xxtofl@arg+1,f
  6396     1685  1903               	skipnz
  6397     1686  0AAC               	incf	___xxtofl@arg+2,f
  6398     1687  1903               	skipnz
  6399     1688  0AAD               	incf	___xxtofl@arg+3,f
  6400     1689  2E92               	goto	l729
  6401     168A                     l3489:
  6402     168A  0823               	movf	___xxtofl@val+3,w
  6403     168B  00AD               	movwf	___xxtofl@arg+3
  6404     168C  0822               	movf	___xxtofl@val+2,w
  6405     168D  00AC               	movwf	___xxtofl@arg+2
  6406     168E  0821               	movf	___xxtofl@val+1,w
  6407     168F  00AB               	movwf	___xxtofl@arg+1
  6408     1690  0820               	movf	___xxtofl@val,w
  6409     1691  00AA               	movwf	___xxtofl@arg
  6410     1692                     l729:
  6411     1692  0823               	movf	___xxtofl@val+3,w
  6412     1693  0422               	iorwf	___xxtofl@val+2,w
  6413     1694  0421               	iorwf	___xxtofl@val+1,w
  6414     1695  0420               	iorwf	___xxtofl@val,w
  6415     1696  1D03               	skipz
  6416     1697  2E99               	goto	u4941
  6417     1698  2E9A               	goto	u4940
  6418     1699                     u4941:
  6419     1699  2EA3               	goto	l730
  6420     169A                     u4940:
  6421     169A                     l3491:
  6422     169A  3000               	movlw	0
  6423     169B  00A3               	movwf	?___xxtofl+3
  6424     169C  3000               	movlw	0
  6425     169D  00A2               	movwf	?___xxtofl+2
  6426     169E  3000               	movlw	0
  6427     169F  00A1               	movwf	?___xxtofl+1
  6428     16A0  3000               	movlw	0
  6429     16A1  00A0               	movwf	?___xxtofl
  6430     16A2  2F23               	goto	l731
  6431     16A3                     l730:
  6432     16A3  3096               	movlw	150
  6433     16A4  00A9               	movwf	___xxtofl@exp
  6434     16A5  2EB1               	goto	l3497
  6435     16A6                     l3495:
  6436     16A6  3001               	movlw	1
  6437     16A7  07A9               	addwf	___xxtofl@exp,f
  6438     16A8  3001               	movlw	1
  6439     16A9                     u4955:
  6440     16A9  1003               	clrc
  6441     16AA  0CAD               	rrf	___xxtofl@arg+3,f
  6442     16AB  0CAC               	rrf	___xxtofl@arg+2,f
  6443     16AC  0CAB               	rrf	___xxtofl@arg+1,f
  6444     16AD  0CAA               	rrf	___xxtofl@arg,f
  6445     16AE  3EFF               	addlw	-1
  6446     16AF  1D03               	skipz
  6447     16B0  2EA9               	goto	u4955
  6448     16B1                     l3497:
  6449     16B1  30FE               	movlw	254
  6450     16B2  052D               	andwf	___xxtofl@arg+3,w
  6451     16B3  1D03               	btfss	3,2
  6452     16B4  2EB6               	goto	u4961
  6453     16B5  2EB7               	goto	u4960
  6454     16B6                     u4961:
  6455     16B6  2EA6               	goto	l3495
  6456     16B7                     u4960:
  6457     16B7  2ED1               	goto	l735
  6458     16B8                     l3499:
  6459     16B8  3001               	movlw	1
  6460     16B9  07A9               	addwf	___xxtofl@exp,f
  6461     16BA                     l3501:
  6462     16BA  3001               	movlw	1
  6463     16BB  07AA               	addwf	___xxtofl@arg,f
  6464     16BC  3000               	movlw	0
  6465     16BD  1803               	skipnc
  6466     16BE  3001               	movlw	1
  6467     16BF  07AB               	addwf	___xxtofl@arg+1,f
  6468     16C0  3000               	movlw	0
  6469     16C1  1803               	skipnc
  6470     16C2  3001               	movlw	1
  6471     16C3  07AC               	addwf	___xxtofl@arg+2,f
  6472     16C4  3000               	movlw	0
  6473     16C5  1803               	skipnc
  6474     16C6  3001               	movlw	1
  6475     16C7  07AD               	addwf	___xxtofl@arg+3,f
  6476     16C8                     l3503:
  6477     16C8  3001               	movlw	1
  6478     16C9                     u4975:
  6479     16C9  1003               	clrc
  6480     16CA  0CAD               	rrf	___xxtofl@arg+3,f
  6481     16CB  0CAC               	rrf	___xxtofl@arg+2,f
  6482     16CC  0CAB               	rrf	___xxtofl@arg+1,f
  6483     16CD  0CAA               	rrf	___xxtofl@arg,f
  6484     16CE  3EFF               	addlw	-1
  6485     16CF  1D03               	skipz
  6486     16D0  2EC9               	goto	u4975
  6487     16D1                     l735:
  6488     16D1  30FF               	movlw	255
  6489     16D2  052D               	andwf	___xxtofl@arg+3,w
  6490     16D3  1D03               	btfss	3,2
  6491     16D4  2ED6               	goto	u4981
  6492     16D5  2ED7               	goto	u4980
  6493     16D6                     u4981:
  6494     16D6  2EB8               	goto	l3499
  6495     16D7                     u4980:
  6496     16D7  2EE3               	goto	l3507
  6497     16D8                     l3505:
  6498     16D8  3001               	movlw	1
  6499     16D9  02A9               	subwf	___xxtofl@exp,f
  6500     16DA  3001               	movlw	1
  6501     16DB  00A4               	movwf	??___xxtofl
  6502     16DC                     u4995:
  6503     16DC  1003               	clrc
  6504     16DD  0DAA               	rlf	___xxtofl@arg,f
  6505     16DE  0DAB               	rlf	___xxtofl@arg+1,f
  6506     16DF  0DAC               	rlf	___xxtofl@arg+2,f
  6507     16E0  0DAD               	rlf	___xxtofl@arg+3,f
  6508     16E1  0BA4               	decfsz	??___xxtofl,f
  6509     16E2  2EDC               	goto	u4995
  6510     16E3                     l3507:
  6511     16E3  1BAC               	btfsc	___xxtofl@arg+2,7
  6512     16E4  2EE6               	goto	u5001
  6513     16E5  2EE7               	goto	u5000
  6514     16E6                     u5001:
  6515     16E6  2EED               	goto	l742
  6516     16E7                     u5000:
  6517     16E7                     l3509:
  6518     16E7  3002               	movlw	2
  6519     16E8  0229               	subwf	___xxtofl@exp,w
  6520     16E9  1803               	skipnc
  6521     16EA  2EEC               	goto	u5011
  6522     16EB  2EED               	goto	u5010
  6523     16EC                     u5011:
  6524     16EC  2ED8               	goto	l3505
  6525     16ED                     u5010:
  6526     16ED                     l742:
  6527     16ED  1829               	btfsc	___xxtofl@exp,0
  6528     16EE  2EF0               	goto	u5021
  6529     16EF  2EF1               	goto	u5020
  6530     16F0                     u5021:
  6531     16F0  2EF9               	goto	l743
  6532     16F1                     u5020:
  6533     16F1                     l3511:
  6534     16F1  30FF               	movlw	255
  6535     16F2  05AA               	andwf	___xxtofl@arg,f
  6536     16F3  30FF               	movlw	255
  6537     16F4  05AB               	andwf	___xxtofl@arg+1,f
  6538     16F5  307F               	movlw	127
  6539     16F6  05AC               	andwf	___xxtofl@arg+2,f
  6540     16F7  30FF               	movlw	255
  6541     16F8  05AD               	andwf	___xxtofl@arg+3,f
  6542     16F9                     l743:
  6543     16F9  1003               	clrc
  6544     16FA  0CA9               	rrf	___xxtofl@exp,f
  6545     16FB                     l3513:
  6546     16FB  0829               	movf	___xxtofl@exp,w
  6547     16FC  00A4               	movwf	??___xxtofl
  6548     16FD  01A5               	clrf	??___xxtofl+1
  6549     16FE  01A6               	clrf	??___xxtofl+2
  6550     16FF  01A7               	clrf	??___xxtofl+3
  6551     1700  3018               	movlw	24
  6552     1701                     u5035:
  6553     1701  1003               	clrc
  6554     1702  0DA4               	rlf	??___xxtofl,f
  6555     1703  0DA5               	rlf	??___xxtofl+1,f
  6556     1704  0DA6               	rlf	??___xxtofl+2,f
  6557     1705  0DA7               	rlf	??___xxtofl+3,f
  6558     1706                     u5030:
  6559     1706  3EFF               	addlw	-1
  6560     1707  1D03               	skipz
  6561     1708  2F01               	goto	u5035
  6562     1709  0824               	movf	??___xxtofl,w
  6563     170A  04AA               	iorwf	___xxtofl@arg,f
  6564     170B  0825               	movf	??___xxtofl+1,w
  6565     170C  04AB               	iorwf	___xxtofl@arg+1,f
  6566     170D  0826               	movf	??___xxtofl+2,w
  6567     170E  04AC               	iorwf	___xxtofl@arg+2,f
  6568     170F  0827               	movf	??___xxtofl+3,w
  6569     1710  04AD               	iorwf	___xxtofl@arg+3,f
  6570     1711                     l3515:
  6571     1711  0828               	movf	___xxtofl@sign,w
  6572     1712  1903               	btfsc	3,2
  6573     1713  2F15               	goto	u5041
  6574     1714  2F16               	goto	u5040
  6575     1715                     u5041:
  6576     1715  2F1B               	goto	l3521
  6577     1716                     u5040:
  6578     1716                     l3517:
  6579     1716  1FA3               	btfss	___xxtofl@val+3,7
  6580     1717  2F19               	goto	u5051
  6581     1718  2F1A               	goto	u5050
  6582     1719                     u5051:
  6583     1719  2F1B               	goto	l3521
  6584     171A                     u5050:
  6585     171A                     l3519:
  6586     171A  17AD               	bsf	___xxtofl@arg+3,7
  6587     171B                     l3521:
  6588     171B  082D               	movf	___xxtofl@arg+3,w
  6589     171C  00A3               	movwf	?___xxtofl+3
  6590     171D  082C               	movf	___xxtofl@arg+2,w
  6591     171E  00A2               	movwf	?___xxtofl+2
  6592     171F  082B               	movf	___xxtofl@arg+1,w
  6593     1720  00A1               	movwf	?___xxtofl+1
  6594     1721  082A               	movf	___xxtofl@arg,w
  6595     1722  00A0               	movwf	?___xxtofl
  6596     1723                     l731:
  6597     1723  0008               	return
  6598     1724                     __end_of___xxtofl:
  6599                           
  6600                           	psect	text22
  6601     1FB8                     __ptext22:	
  6602 ;; *************** function ___lmul *****************
  6603 ;; Defined at:
  6604 ;;		line 15 in file "C:\Program Files\Microchip\xc8\v3.00\pic\sources\c99\common\Umul32.c"
  6605 ;; Parameters:    Size  Location     Type
  6606 ;;  multiplier      4    0[BANK0 ] unsigned long 
  6607 ;;  multiplicand    4    4[BANK0 ] unsigned long 
  6608 ;; Auto vars:     Size  Location     Type
  6609 ;;  product         4    9[BANK0 ] unsigned long 
  6610 ;; Return value:  Size  Location     Type
  6611 ;;                  4    0[BANK0 ] unsigned long 
  6612 ;; Registers used:
  6613 ;;		wreg, status,2, status,0
  6614 ;; Tracked objects:
  6615 ;;		On entry : 0/0
  6616 ;;		On exit  : 0/0
  6617 ;;		Unchanged: 0/0
  6618 ;; Data sizes:     COMMON   BANK0   BANK1   BANK3   BANK2
  6619 ;;      Params:         0       8       0       0       0
  6620 ;;      Locals:         0       4       0       0       0
  6621 ;;      Temps:          0       1       0       0       0
  6622 ;;      Totals:         0      13       0       0       0
  6623 ;;Total ram usage:       13 bytes
  6624 ;; Hardware stack levels used: 1
  6625 ;; Hardware stack levels required when called: 1
  6626 ;; This function calls:
  6627 ;;		Nothing
  6628 ;; This function is called by:
  6629 ;;		_main
  6630 ;; This function uses a non-reentrant model
  6631 ;;
  6632                           
  6633     1FB8                     ___lmul:	
  6634                           ;psect for function ___lmul
  6635                           
  6636     1FB8                     l3387:	
  6637                           ;incstack = 0
  6638                           ; Regs used in ___lmul: [wreg+status,2+status,0]
  6639                           
  6640     1FB8  3000               	movlw	0
  6641     1FB9  1283               	bcf	3,5	;RP0=0, select bank0
  6642     1FBA  1303               	bcf	3,6	;RP1=0, select bank0
  6643     1FBB  00AC               	movwf	___lmul@product+3
  6644     1FBC  3000               	movlw	0
  6645     1FBD  00AB               	movwf	___lmul@product+2
  6646     1FBE  3000               	movlw	0
  6647     1FBF  00AA               	movwf	___lmul@product+1
  6648     1FC0  3000               	movlw	0
  6649     1FC1  00A9               	movwf	___lmul@product
  6650     1FC2                     l3389:
  6651     1FC2  1C20               	btfss	___lmul@multiplier,0
  6652     1FC3  2FC5               	goto	u4681
  6653     1FC4  2FC6               	goto	u4680
  6654     1FC5                     u4681:
  6655     1FC5  2FDD               	goto	l3393
  6656     1FC6                     u4680:
  6657     1FC6                     l3391:
  6658     1FC6  0824               	movf	___lmul@multiplicand,w
  6659     1FC7  07A9               	addwf	___lmul@product,f
  6660     1FC8  0825               	movf	___lmul@multiplicand+1,w
  6661     1FC9  1103               	clrz
  6662     1FCA  1803               	skipnc
  6663     1FCB  3E01               	addlw	1
  6664     1FCC  1903               	skipnz
  6665     1FCD  2FCF               	goto	u4691
  6666     1FCE  07AA               	addwf	___lmul@product+1,f
  6667     1FCF                     u4691:
  6668     1FCF  0826               	movf	___lmul@multiplicand+2,w
  6669     1FD0  1103               	clrz
  6670     1FD1  1803               	skipnc
  6671     1FD2  3E01               	addlw	1
  6672     1FD3  1903               	skipnz
  6673     1FD4  2FD6               	goto	u4692
  6674     1FD5  07AB               	addwf	___lmul@product+2,f
  6675     1FD6                     u4692:
  6676     1FD6  0827               	movf	___lmul@multiplicand+3,w
  6677     1FD7  1103               	clrz
  6678     1FD8  1803               	skipnc
  6679     1FD9  3E01               	addlw	1
  6680     1FDA  1903               	skipnz
  6681     1FDB  2FDD               	goto	u4693
  6682     1FDC  07AC               	addwf	___lmul@product+3,f
  6683     1FDD                     u4693:
  6684     1FDD                     l3393:
  6685     1FDD  3001               	movlw	1
  6686     1FDE  00A8               	movwf	??___lmul
  6687     1FDF                     u4705:
  6688     1FDF  1003               	clrc
  6689     1FE0  0DA4               	rlf	___lmul@multiplicand,f
  6690     1FE1  0DA5               	rlf	___lmul@multiplicand+1,f
  6691     1FE2  0DA6               	rlf	___lmul@multiplicand+2,f
  6692     1FE3  0DA7               	rlf	___lmul@multiplicand+3,f
  6693     1FE4  0BA8               	decfsz	??___lmul,f
  6694     1FE5  2FDF               	goto	u4705
  6695     1FE6                     l3395:
  6696     1FE6  3001               	movlw	1
  6697     1FE7                     u4715:
  6698     1FE7  1003               	clrc
  6699     1FE8  0CA3               	rrf	___lmul@multiplier+3,f
  6700     1FE9  0CA2               	rrf	___lmul@multiplier+2,f
  6701     1FEA  0CA1               	rrf	___lmul@multiplier+1,f
  6702     1FEB  0CA0               	rrf	___lmul@multiplier,f
  6703     1FEC  3EFF               	addlw	-1
  6704     1FED  1D03               	skipz
  6705     1FEE  2FE7               	goto	u4715
  6706     1FEF  0823               	movf	___lmul@multiplier+3,w
  6707     1FF0  0422               	iorwf	___lmul@multiplier+2,w
  6708     1FF1  0421               	iorwf	___lmul@multiplier+1,w
  6709     1FF2  0420               	iorwf	___lmul@multiplier,w
  6710     1FF3  1D03               	skipz
  6711     1FF4  2FF6               	goto	u4721
  6712     1FF5  2FF7               	goto	u4720
  6713     1FF6                     u4721:
  6714     1FF6  2FC2               	goto	l3389
  6715     1FF7                     u4720:
  6716     1FF7                     l3397:
  6717     1FF7  082C               	movf	___lmul@product+3,w
  6718     1FF8  00A3               	movwf	?___lmul+3
  6719     1FF9  082B               	movf	___lmul@product+2,w
  6720     1FFA  00A2               	movwf	?___lmul+2
  6721     1FFB  082A               	movf	___lmul@product+1,w
  6722     1FFC  00A1               	movwf	?___lmul+1
  6723     1FFD  0829               	movf	___lmul@product,w
  6724     1FFE  00A0               	movwf	?___lmul
  6725     1FFF                     l302:
  6726     1FFF  0008               	return
  6727     2000                     __end_of___lmul:
  6728                           
  6729                           	psect	text23
  6730     07A2                     __ptext23:	
  6731 ;; *************** function ___awmod *****************
  6732 ;; Defined at:
  6733 ;;		line 5 in file "C:\Program Files\Microchip\xc8\v3.00\pic\sources\c99\common\awmod.c"
  6734 ;; Parameters:    Size  Location     Type
  6735 ;;  divisor         2    0[BANK0 ] int 
  6736 ;;  dividend        2    2[BANK0 ] int 
  6737 ;; Auto vars:     Size  Location     Type
  6738 ;;  sign            1    5[BANK0 ] unsigned char 
  6739 ;;  counter         1    4[BANK0 ] unsigned char 
  6740 ;; Return value:  Size  Location     Type
  6741 ;;                  2    0[BANK0 ] int 
  6742 ;; Registers used:
  6743 ;;		wreg, status,2, status,0
  6744 ;; Tracked objects:
  6745 ;;		On entry : 0/0
  6746 ;;		On exit  : 0/0
  6747 ;;		Unchanged: 0/0
  6748 ;; Data sizes:     COMMON   BANK0   BANK1   BANK3   BANK2
  6749 ;;      Params:         0       4       0       0       0
  6750 ;;      Locals:         0       2       0       0       0
  6751 ;;      Temps:          0       0       0       0       0
  6752 ;;      Totals:         0       6       0       0       0
  6753 ;;Total ram usage:        6 bytes
  6754 ;; Hardware stack levels used: 1
  6755 ;; Hardware stack levels required when called: 1
  6756 ;; This function calls:
  6757 ;;		Nothing
  6758 ;; This function is called by:
  6759 ;;		_main
  6760 ;; This function uses a non-reentrant model
  6761 ;;
  6762                           
  6763     07A2                     ___awmod:	
  6764                           ;psect for function ___awmod
  6765                           
  6766     07A2                     l3445:	
  6767                           ;incstack = 0
  6768                           ; Regs used in ___awmod: [wreg+status,2+status,0]
  6769                           
  6770     07A2  1283               	bcf	3,5	;RP0=0, select bank0
  6771     07A3  1303               	bcf	3,6	;RP1=0, select bank0
  6772     07A4  01A5               	clrf	___awmod@sign
  6773     07A5                     l3447:
  6774     07A5  1FA3               	btfss	___awmod@dividend+1,7
  6775     07A6  2FA8               	goto	u4831
  6776     07A7  2FA9               	goto	u4830
  6777     07A8                     u4831:
  6778     07A8  2FB0               	goto	l3453
  6779     07A9                     u4830:
  6780     07A9                     l3449:
  6781     07A9  09A2               	comf	___awmod@dividend,f
  6782     07AA  09A3               	comf	___awmod@dividend+1,f
  6783     07AB  0AA2               	incf	___awmod@dividend,f
  6784     07AC  1903               	skipnz
  6785     07AD  0AA3               	incf	___awmod@dividend+1,f
  6786     07AE                     l3451:
  6787     07AE  3001               	movlw	1
  6788     07AF  00A5               	movwf	___awmod@sign
  6789     07B0                     l3453:
  6790     07B0  1FA1               	btfss	___awmod@divisor+1,7
  6791     07B1  2FB3               	goto	u4841
  6792     07B2  2FB4               	goto	u4840
  6793     07B3                     u4841:
  6794     07B3  2FB9               	goto	l3457
  6795     07B4                     u4840:
  6796     07B4                     l3455:
  6797     07B4  09A0               	comf	___awmod@divisor,f
  6798     07B5  09A1               	comf	___awmod@divisor+1,f
  6799     07B6  0AA0               	incf	___awmod@divisor,f
  6800     07B7  1903               	skipnz
  6801     07B8  0AA1               	incf	___awmod@divisor+1,f
  6802     07B9                     l3457:
  6803     07B9  0820               	movf	___awmod@divisor,w
  6804     07BA  0421               	iorwf	___awmod@divisor+1,w
  6805     07BB  1903               	btfsc	3,2
  6806     07BC  2FBE               	goto	u4851
  6807     07BD  2FBF               	goto	u4850
  6808     07BE                     u4851:
  6809     07BE  2FEC               	goto	l3475
  6810     07BF                     u4850:
  6811     07BF                     l3459:
  6812     07BF  3001               	movlw	1
  6813     07C0  00A4               	movwf	___awmod@counter
  6814     07C1  2FCB               	goto	l3465
  6815     07C2                     l3461:
  6816     07C2  3001               	movlw	1
  6817     07C3                     u4865:
  6818     07C3  1003               	clrc
  6819     07C4  0DA0               	rlf	___awmod@divisor,f
  6820     07C5  0DA1               	rlf	___awmod@divisor+1,f
  6821     07C6  3EFF               	addlw	-1
  6822     07C7  1D03               	skipz
  6823     07C8  2FC3               	goto	u4865
  6824     07C9                     l3463:
  6825     07C9  3001               	movlw	1
  6826     07CA  07A4               	addwf	___awmod@counter,f
  6827     07CB                     l3465:
  6828     07CB  1FA1               	btfss	___awmod@divisor+1,7
  6829     07CC  2FCE               	goto	u4871
  6830     07CD  2FCF               	goto	u4870
  6831     07CE                     u4871:
  6832     07CE  2FC2               	goto	l3461
  6833     07CF                     u4870:
  6834     07CF                     l3467:
  6835     07CF  0821               	movf	___awmod@divisor+1,w
  6836     07D0  0223               	subwf	___awmod@dividend+1,w
  6837     07D1  1D03               	skipz
  6838     07D2  2FD5               	goto	u4885
  6839     07D3  0820               	movf	___awmod@divisor,w
  6840     07D4  0222               	subwf	___awmod@dividend,w
  6841     07D5                     u4885:
  6842     07D5  1C03               	skipc
  6843     07D6  2FD8               	goto	u4881
  6844     07D7  2FD9               	goto	u4880
  6845     07D8                     u4881:
  6846     07D8  2FDF               	goto	l3471
  6847     07D9                     u4880:
  6848     07D9                     l3469:
  6849     07D9  0820               	movf	___awmod@divisor,w
  6850     07DA  02A2               	subwf	___awmod@dividend,f
  6851     07DB  0821               	movf	___awmod@divisor+1,w
  6852     07DC  1C03               	skipc
  6853     07DD  03A3               	decf	___awmod@dividend+1,f
  6854     07DE  02A3               	subwf	___awmod@dividend+1,f
  6855     07DF                     l3471:
  6856     07DF  3001               	movlw	1
  6857     07E0                     u4895:
  6858     07E0  1003               	clrc
  6859     07E1  0CA1               	rrf	___awmod@divisor+1,f
  6860     07E2  0CA0               	rrf	___awmod@divisor,f
  6861     07E3  3EFF               	addlw	-1
  6862     07E4  1D03               	skipz
  6863     07E5  2FE0               	goto	u4895
  6864     07E6                     l3473:
  6865     07E6  3001               	movlw	1
  6866     07E7  02A4               	subwf	___awmod@counter,f
  6867     07E8  1D03               	btfss	3,2
  6868     07E9  2FEB               	goto	u4901
  6869     07EA  2FEC               	goto	u4900
  6870     07EB                     u4901:
  6871     07EB  2FCF               	goto	l3467
  6872     07EC                     u4900:
  6873     07EC                     l3475:
  6874     07EC  0825               	movf	___awmod@sign,w
  6875     07ED  1903               	btfsc	3,2
  6876     07EE  2FF0               	goto	u4911
  6877     07EF  2FF1               	goto	u4910
  6878     07F0                     u4911:
  6879     07F0  2FF6               	goto	l3479
  6880     07F1                     u4910:
  6881     07F1                     l3477:
  6882     07F1  09A2               	comf	___awmod@dividend,f
  6883     07F2  09A3               	comf	___awmod@dividend+1,f
  6884     07F3  0AA2               	incf	___awmod@dividend,f
  6885     07F4  1903               	skipnz
  6886     07F5  0AA3               	incf	___awmod@dividend+1,f
  6887     07F6                     l3479:
  6888     07F6  0823               	movf	___awmod@dividend+1,w
  6889     07F7  00A1               	movwf	?___awmod+1
  6890     07F8  0822               	movf	___awmod@dividend,w
  6891     07F9  00A0               	movwf	?___awmod
  6892     07FA                     l454:
  6893     07FA  0008               	return
  6894     07FB                     __end_of___awmod:
  6895                           
  6896                           	psect	text24
  6897     11B7                     __ptext24:	
  6898 ;; *************** function ___awdiv *****************
  6899 ;; Defined at:
  6900 ;;		line 5 in file "C:\Program Files\Microchip\xc8\v3.00\pic\sources\c99\common\awdiv.c"
  6901 ;; Parameters:    Size  Location     Type
  6902 ;;  divisor         2    6[BANK0 ] int 
  6903 ;;  dividend        2    8[BANK0 ] int 
  6904 ;; Auto vars:     Size  Location     Type
  6905 ;;  quotient        2   12[BANK0 ] int 
  6906 ;;  sign            1   11[BANK0 ] unsigned char 
  6907 ;;  counter         1   10[BANK0 ] unsigned char 
  6908 ;; Return value:  Size  Location     Type
  6909 ;;                  2    6[BANK0 ] int 
  6910 ;; Registers used:
  6911 ;;		wreg, status,2, status,0
  6912 ;; Tracked objects:
  6913 ;;		On entry : 0/0
  6914 ;;		On exit  : 0/0
  6915 ;;		Unchanged: 0/0
  6916 ;; Data sizes:     COMMON   BANK0   BANK1   BANK3   BANK2
  6917 ;;      Params:         0       4       0       0       0
  6918 ;;      Locals:         0       4       0       0       0
  6919 ;;      Temps:          0       0       0       0       0
  6920 ;;      Totals:         0       8       0       0       0
  6921 ;;Total ram usage:        8 bytes
  6922 ;; Hardware stack levels used: 1
  6923 ;; Hardware stack levels required when called: 1
  6924 ;; This function calls:
  6925 ;;		Nothing
  6926 ;; This function is called by:
  6927 ;;		_main
  6928 ;; This function uses a non-reentrant model
  6929 ;;
  6930                           
  6931     11B7                     ___awdiv:	
  6932                           ;psect for function ___awdiv
  6933                           
  6934     11B7                     l3401:	
  6935                           ;incstack = 0
  6936                           ; Regs used in ___awdiv: [wreg+status,2+status,0]
  6937                           
  6938     11B7  1283               	bcf	3,5	;RP0=0, select bank0
  6939     11B8  1303               	bcf	3,6	;RP1=0, select bank0
  6940     11B9  01AB               	clrf	___awdiv@sign
  6941     11BA                     l3403:
  6942     11BA  1FA7               	btfss	___awdiv@divisor+1,7
  6943     11BB  29BD               	goto	u4731
  6944     11BC  29BE               	goto	u4730
  6945     11BD                     u4731:
  6946     11BD  29C5               	goto	l3409
  6947     11BE                     u4730:
  6948     11BE                     l3405:
  6949     11BE  09A6               	comf	___awdiv@divisor,f
  6950     11BF  09A7               	comf	___awdiv@divisor+1,f
  6951     11C0  0AA6               	incf	___awdiv@divisor,f
  6952     11C1  1903               	skipnz
  6953     11C2  0AA7               	incf	___awdiv@divisor+1,f
  6954     11C3                     l3407:
  6955     11C3  3001               	movlw	1
  6956     11C4  00AB               	movwf	___awdiv@sign
  6957     11C5                     l3409:
  6958     11C5  1FA9               	btfss	___awdiv@dividend+1,7
  6959     11C6  29C8               	goto	u4741
  6960     11C7  29C9               	goto	u4740
  6961     11C8                     u4741:
  6962     11C8  29D0               	goto	l3415
  6963     11C9                     u4740:
  6964     11C9                     l3411:
  6965     11C9  09A8               	comf	___awdiv@dividend,f
  6966     11CA  09A9               	comf	___awdiv@dividend+1,f
  6967     11CB  0AA8               	incf	___awdiv@dividend,f
  6968     11CC  1903               	skipnz
  6969     11CD  0AA9               	incf	___awdiv@dividend+1,f
  6970     11CE                     l3413:
  6971     11CE  3001               	movlw	1
  6972     11CF  06AB               	xorwf	___awdiv@sign,f
  6973     11D0                     l3415:
  6974     11D0  01AC               	clrf	___awdiv@quotient
  6975     11D1  01AD               	clrf	___awdiv@quotient+1
  6976     11D2                     l3417:
  6977     11D2  0826               	movf	___awdiv@divisor,w
  6978     11D3  0427               	iorwf	___awdiv@divisor+1,w
  6979     11D4  1903               	btfsc	3,2
  6980     11D5  29D7               	goto	u4751
  6981     11D6  29D8               	goto	u4750
  6982     11D7                     u4751:
  6983     11D7  2A0D               	goto	l3437
  6984     11D8                     u4750:
  6985     11D8                     l3419:
  6986     11D8  3001               	movlw	1
  6987     11D9  00AA               	movwf	___awdiv@counter
  6988     11DA  29E4               	goto	l3425
  6989     11DB                     l3421:
  6990     11DB  3001               	movlw	1
  6991     11DC                     u4765:
  6992     11DC  1003               	clrc
  6993     11DD  0DA6               	rlf	___awdiv@divisor,f
  6994     11DE  0DA7               	rlf	___awdiv@divisor+1,f
  6995     11DF  3EFF               	addlw	-1
  6996     11E0  1D03               	skipz
  6997     11E1  29DC               	goto	u4765
  6998     11E2                     l3423:
  6999     11E2  3001               	movlw	1
  7000     11E3  07AA               	addwf	___awdiv@counter,f
  7001     11E4                     l3425:
  7002     11E4  1FA7               	btfss	___awdiv@divisor+1,7
  7003     11E5  29E7               	goto	u4771
  7004     11E6  29E8               	goto	u4770
  7005     11E7                     u4771:
  7006     11E7  29DB               	goto	l3421
  7007     11E8                     u4770:
  7008     11E8                     l3427:
  7009     11E8  3001               	movlw	1
  7010     11E9                     u4785:
  7011     11E9  1003               	clrc
  7012     11EA  0DAC               	rlf	___awdiv@quotient,f
  7013     11EB  0DAD               	rlf	___awdiv@quotient+1,f
  7014     11EC  3EFF               	addlw	-1
  7015     11ED  1D03               	skipz
  7016     11EE  29E9               	goto	u4785
  7017     11EF  0827               	movf	___awdiv@divisor+1,w
  7018     11F0  0229               	subwf	___awdiv@dividend+1,w
  7019     11F1  1D03               	skipz
  7020     11F2  29F5               	goto	u4795
  7021     11F3  0826               	movf	___awdiv@divisor,w
  7022     11F4  0228               	subwf	___awdiv@dividend,w
  7023     11F5                     u4795:
  7024     11F5  1C03               	skipc
  7025     11F6  29F8               	goto	u4791
  7026     11F7  29F9               	goto	u4790
  7027     11F8                     u4791:
  7028     11F8  2A00               	goto	l3433
  7029     11F9                     u4790:
  7030     11F9                     l3429:
  7031     11F9  0826               	movf	___awdiv@divisor,w
  7032     11FA  02A8               	subwf	___awdiv@dividend,f
  7033     11FB  0827               	movf	___awdiv@divisor+1,w
  7034     11FC  1C03               	skipc
  7035     11FD  03A9               	decf	___awdiv@dividend+1,f
  7036     11FE  02A9               	subwf	___awdiv@dividend+1,f
  7037     11FF                     l3431:
  7038     11FF  142C               	bsf	___awdiv@quotient,0
  7039     1200                     l3433:
  7040     1200  3001               	movlw	1
  7041     1201                     u4805:
  7042     1201  1003               	clrc
  7043     1202  0CA7               	rrf	___awdiv@divisor+1,f
  7044     1203  0CA6               	rrf	___awdiv@divisor,f
  7045     1204  3EFF               	addlw	-1
  7046     1205  1D03               	skipz
  7047     1206  2A01               	goto	u4805
  7048     1207                     l3435:
  7049     1207  3001               	movlw	1
  7050     1208  02AA               	subwf	___awdiv@counter,f
  7051     1209  1D03               	btfss	3,2
  7052     120A  2A0C               	goto	u4811
  7053     120B  2A0D               	goto	u4810
  7054     120C                     u4811:
  7055     120C  29E8               	goto	l3427
  7056     120D                     u4810:
  7057     120D                     l3437:
  7058     120D  082B               	movf	___awdiv@sign,w
  7059     120E  1903               	btfsc	3,2
  7060     120F  2A11               	goto	u4821
  7061     1210  2A12               	goto	u4820
  7062     1211                     u4821:
  7063     1211  2A17               	goto	l3441
  7064     1212                     u4820:
  7065     1212                     l3439:
  7066     1212  09AC               	comf	___awdiv@quotient,f
  7067     1213  09AD               	comf	___awdiv@quotient+1,f
  7068     1214  0AAC               	incf	___awdiv@quotient,f
  7069     1215  1903               	skipnz
  7070     1216  0AAD               	incf	___awdiv@quotient+1,f
  7071     1217                     l3441:
  7072     1217  082D               	movf	___awdiv@quotient+1,w
  7073     1218  00A7               	movwf	?___awdiv+1
  7074     1219  082C               	movf	___awdiv@quotient,w
  7075     121A  00A6               	movwf	?___awdiv
  7076     121B                     l441:
  7077     121B  0008               	return
  7078     121C                     __end_of___awdiv:
  7079                           
  7080                           	psect	text25
  7081     15BE                     __ptext25:	
  7082 ;; *************** function _USART_init *****************
  7083 ;; Defined at:
  7084 ;;		line 21 in file "USART_lib.c"
  7085 ;; Parameters:    Size  Location     Type
  7086 ;;  Fosc            4    8[BANK1 ] float 
  7087 ;;  BaudRate        4   12[BANK1 ] float 
  7088 ;; Auto vars:     Size  Location     Type
  7089 ;;  x               4   16[BANK1 ] float 
  7090 ;; Return value:  Size  Location     Type
  7091 ;;                  1    wreg      void 
  7092 ;; Registers used:
  7093 ;;		wreg, status,2, status,0, btemp+1, pclath, cstack
  7094 ;; Tracked objects:
  7095 ;;		On entry : 0/0
  7096 ;;		On exit  : 0/0
  7097 ;;		Unchanged: 0/0
  7098 ;; Data sizes:     COMMON   BANK0   BANK1   BANK3   BANK2
  7099 ;;      Params:         0       0       8       0       0
  7100 ;;      Locals:         0       0       4       0       0
  7101 ;;      Temps:          0       0       0       0       0
  7102 ;;      Totals:         0       0      12       0       0
  7103 ;;Total ram usage:       12 bytes
  7104 ;; Hardware stack levels used: 1
  7105 ;; Hardware stack levels required when called: 3
  7106 ;; This function calls:
  7107 ;;		___fladd
  7108 ;;		___fldiv
  7109 ;;		___flmul
  7110 ;;		___fltol
  7111 ;; This function is called by:
  7112 ;;		_main
  7113 ;; This function uses a non-reentrant model
  7114 ;;
  7115                           
  7116     15BE                     _USART_init:	
  7117                           ;psect for function _USART_init
  7118                           
  7119     15BE                     l3347:	
  7120                           ;incstack = 0
  7121                           ; Regs used in _USART_init: [wreg+status,2+status,0+btemp+1+pclath+cstack]
  7122                           
  7123                           
  7124                           ;USART_lib.c: 21: void USART_init(float Fosc,float BaudRate);USART_lib.c: 22: {;USART_li
      +                          b.c: 23:     TRISC6=0;
  7125     15BE  1683               	bsf	3,5	;RP0=1, select bank1
  7126     15BF  1303               	bcf	3,6	;RP1=0, select bank1
  7127     15C0  1307               	bcf	7,6	;volatile
  7128                           
  7129                           ;USART_lib.c: 24:     TRISC7=1;
  7130     15C1  1787               	bsf	7,7	;volatile
  7131                           
  7132                           ;USART_lib.c: 25:     SPEN=1;
  7133     15C2  1283               	bcf	3,5	;RP0=0, select bank0
  7134     15C3  1303               	bcf	3,6	;RP1=0, select bank0
  7135     15C4  1798               	bsf	24,7	;volatile
  7136                           
  7137                           ;USART_lib.c: 26:     SYNC=0;
  7138     15C5  1683               	bsf	3,5	;RP0=1, select bank1
  7139     15C6  1303               	bcf	3,6	;RP1=0, select bank1
  7140     15C7  1218               	bcf	24,4	;volatile
  7141                           
  7142                           ;USART_lib.c: 27:     TXEN=1;
  7143     15C8  1698               	bsf	24,5	;volatile
  7144                           
  7145                           ;USART_lib.c: 28:     CREN=1;
  7146     15C9  1283               	bcf	3,5	;RP0=0, select bank0
  7147     15CA  1303               	bcf	3,6	;RP1=0, select bank0
  7148     15CB  1618               	bsf	24,4	;volatile
  7149                           
  7150                           ;USART_lib.c: 30:     BRGH=1;
  7151     15CC  1683               	bsf	3,5	;RP0=1, select bank1
  7152     15CD  1303               	bcf	3,6	;RP1=0, select bank1
  7153     15CE  1518               	bsf	24,2	;volatile
  7154     15CF                     l3349:
  7155                           
  7156                           ;USART_lib.c: 31:     float x=Fosc/(BaudRate*16.0)-1;
  7157     15CF  30BF               	movlw	191
  7158     15D0  1283               	bcf	3,5	;RP0=0, select bank0
  7159     15D1  1303               	bcf	3,6	;RP1=0, select bank0
  7160     15D2  00E5               	movwf	___fladd@b+3
  7161     15D3  3080               	movlw	128
  7162     15D4  00E4               	movwf	___fladd@b+2
  7163     15D5  3000               	movlw	0
  7164     15D6  00E3               	movwf	___fladd@b+1
  7165     15D7  3000               	movlw	0
  7166     15D8  00E2               	movwf	___fladd@b
  7167     15D9  3041               	movlw	65
  7168     15DA  00B1               	movwf	___flmul@b+3
  7169     15DB  3080               	movlw	128
  7170     15DC  00B0               	movwf	___flmul@b+2
  7171     15DD  3000               	movlw	0
  7172     15DE  00AF               	movwf	___flmul@b+1
  7173     15DF  3000               	movlw	0
  7174     15E0  00AE               	movwf	___flmul@b
  7175     15E1  1683               	bsf	3,5	;RP0=1, select bank1
  7176     15E2  1303               	bcf	3,6	;RP1=0, select bank1
  7177     15E3  082F               	movf	(USART_init@BaudRate+3)^(0+128),w
  7178     15E4  1283               	bcf	3,5	;RP0=0, select bank0
  7179     15E5  1303               	bcf	3,6	;RP1=0, select bank0
  7180     15E6  00B5               	movwf	___flmul@a+3
  7181     15E7  1683               	bsf	3,5	;RP0=1, select bank1
  7182     15E8  1303               	bcf	3,6	;RP1=0, select bank1
  7183     15E9  082E               	movf	(USART_init@BaudRate+2)^(0+128),w
  7184     15EA  1283               	bcf	3,5	;RP0=0, select bank0
  7185     15EB  1303               	bcf	3,6	;RP1=0, select bank0
  7186     15EC  00B4               	movwf	___flmul@a+2
  7187     15ED  1683               	bsf	3,5	;RP0=1, select bank1
  7188     15EE  1303               	bcf	3,6	;RP1=0, select bank1
  7189     15EF  082D               	movf	(USART_init@BaudRate+1)^(0+128),w
  7190     15F0  1283               	bcf	3,5	;RP0=0, select bank0
  7191     15F1  1303               	bcf	3,6	;RP1=0, select bank0
  7192     15F2  00B3               	movwf	___flmul@a+1
  7193     15F3  1683               	bsf	3,5	;RP0=1, select bank1
  7194     15F4  1303               	bcf	3,6	;RP1=0, select bank1
  7195     15F5  082C               	movf	USART_init@BaudRate^(0+128),w
  7196     15F6  1283               	bcf	3,5	;RP0=0, select bank0
  7197     15F7  1303               	bcf	3,6	;RP1=0, select bank0
  7198     15F8  00B2               	movwf	___flmul@a
  7199     15F9  120A  158A  24BE  160A  118A  	fcall	___flmul
  7200     15FE  1283               	bcf	3,5	;RP0=0, select bank0
  7201     15FF  1303               	bcf	3,6	;RP1=0, select bank0
  7202     1600  0831               	movf	?___flmul+3,w
  7203     1601  00CB               	movwf	___fldiv@a+3
  7204     1602  0830               	movf	?___flmul+2,w
  7205     1603  00CA               	movwf	___fldiv@a+2
  7206     1604  082F               	movf	?___flmul+1,w
  7207     1605  00C9               	movwf	___fldiv@a+1
  7208     1606  082E               	movf	?___flmul,w
  7209     1607  00C8               	movwf	___fldiv@a
  7210     1608  1683               	bsf	3,5	;RP0=1, select bank1
  7211     1609  1303               	bcf	3,6	;RP1=0, select bank1
  7212     160A  082B               	movf	(USART_init@Fosc+3)^(0+128),w
  7213     160B  1283               	bcf	3,5	;RP0=0, select bank0
  7214     160C  1303               	bcf	3,6	;RP1=0, select bank0
  7215     160D  00CF               	movwf	___fldiv@b+3
  7216     160E  1683               	bsf	3,5	;RP0=1, select bank1
  7217     160F  1303               	bcf	3,6	;RP1=0, select bank1
  7218     1610  082A               	movf	(USART_init@Fosc+2)^(0+128),w
  7219     1611  1283               	bcf	3,5	;RP0=0, select bank0
  7220     1612  1303               	bcf	3,6	;RP1=0, select bank0
  7221     1613  00CE               	movwf	___fldiv@b+2
  7222     1614  1683               	bsf	3,5	;RP0=1, select bank1
  7223     1615  1303               	bcf	3,6	;RP1=0, select bank1
  7224     1616  0829               	movf	(USART_init@Fosc+1)^(0+128),w
  7225     1617  1283               	bcf	3,5	;RP0=0, select bank0
  7226     1618  1303               	bcf	3,6	;RP1=0, select bank0
  7227     1619  00CD               	movwf	___fldiv@b+1
  7228     161A  1683               	bsf	3,5	;RP0=1, select bank1
  7229     161B  1303               	bcf	3,6	;RP1=0, select bank1
  7230     161C  0828               	movf	USART_init@Fosc^(0+128),w
  7231     161D  1283               	bcf	3,5	;RP0=0, select bank0
  7232     161E  1303               	bcf	3,6	;RP1=0, select bank0
  7233     161F  00CC               	movwf	___fldiv@b
  7234     1620  120A  118A  25D8  160A  118A  	fcall	___fldiv
  7235     1625  1283               	bcf	3,5	;RP0=0, select bank0
  7236     1626  1303               	bcf	3,6	;RP1=0, select bank0
  7237     1627  084B               	movf	?___fldiv+3,w
  7238     1628  00E9               	movwf	___fladd@a+3
  7239     1629  084A               	movf	?___fldiv+2,w
  7240     162A  00E8               	movwf	___fladd@a+2
  7241     162B  0849               	movf	?___fldiv+1,w
  7242     162C  00E7               	movwf	___fladd@a+1
  7243     162D  0848               	movf	?___fldiv,w
  7244     162E  00E6               	movwf	___fladd@a
  7245     162F  120A  158A  21EC  160A  118A  	fcall	___fladd
  7246     1634  1283               	bcf	3,5	;RP0=0, select bank0
  7247     1635  1303               	bcf	3,6	;RP1=0, select bank0
  7248     1636  0865               	movf	?___fladd+3,w
  7249     1637  1683               	bsf	3,5	;RP0=1, select bank1
  7250     1638  1303               	bcf	3,6	;RP1=0, select bank1
  7251     1639  00B3               	movwf	(USART_init@x+3)^(0+128)
  7252     163A  1283               	bcf	3,5	;RP0=0, select bank0
  7253     163B  1303               	bcf	3,6	;RP1=0, select bank0
  7254     163C  0864               	movf	?___fladd+2,w
  7255     163D  1683               	bsf	3,5	;RP0=1, select bank1
  7256     163E  1303               	bcf	3,6	;RP1=0, select bank1
  7257     163F  00B2               	movwf	(USART_init@x+2)^(0+128)
  7258     1640  1283               	bcf	3,5	;RP0=0, select bank0
  7259     1641  1303               	bcf	3,6	;RP1=0, select bank0
  7260     1642  0863               	movf	?___fladd+1,w
  7261     1643  1683               	bsf	3,5	;RP0=1, select bank1
  7262     1644  1303               	bcf	3,6	;RP1=0, select bank1
  7263     1645  00B1               	movwf	(USART_init@x+1)^(0+128)
  7264     1646  1283               	bcf	3,5	;RP0=0, select bank0
  7265     1647  1303               	bcf	3,6	;RP1=0, select bank0
  7266     1648  0862               	movf	?___fladd,w
  7267     1649  1683               	bsf	3,5	;RP0=1, select bank1
  7268     164A  1303               	bcf	3,6	;RP1=0, select bank1
  7269     164B  00B0               	movwf	USART_init@x^(0+128)
  7270     164C                     l3351:
  7271                           
  7272                           ;USART_lib.c: 32:     SPBRG=(char)x;
  7273     164C  0833               	movf	(USART_init@x+3)^(0+128),w
  7274     164D  1283               	bcf	3,5	;RP0=0, select bank0
  7275     164E  1303               	bcf	3,6	;RP1=0, select bank0
  7276     164F  00CB               	movwf	___fltol@f1+3
  7277     1650  1683               	bsf	3,5	;RP0=1, select bank1
  7278     1651  1303               	bcf	3,6	;RP1=0, select bank1
  7279     1652  0832               	movf	(USART_init@x+2)^(0+128),w
  7280     1653  1283               	bcf	3,5	;RP0=0, select bank0
  7281     1654  1303               	bcf	3,6	;RP1=0, select bank0
  7282     1655  00CA               	movwf	___fltol@f1+2
  7283     1656  1683               	bsf	3,5	;RP0=1, select bank1
  7284     1657  1303               	bcf	3,6	;RP1=0, select bank1
  7285     1658  0831               	movf	(USART_init@x+1)^(0+128),w
  7286     1659  1283               	bcf	3,5	;RP0=0, select bank0
  7287     165A  1303               	bcf	3,6	;RP1=0, select bank0
  7288     165B  00C9               	movwf	___fltol@f1+1
  7289     165C  1683               	bsf	3,5	;RP0=1, select bank1
  7290     165D  1303               	bcf	3,6	;RP1=0, select bank1
  7291     165E  0830               	movf	USART_init@x^(0+128),w
  7292     165F  1283               	bcf	3,5	;RP0=0, select bank0
  7293     1660  1303               	bcf	3,6	;RP1=0, select bank0
  7294     1661  00C8               	movwf	___fltol@f1
  7295     1662  160A  118A  22F5  160A  118A  	fcall	___fltol
  7296     1667  1283               	bcf	3,5	;RP0=0, select bank0
  7297     1668  1303               	bcf	3,6	;RP1=0, select bank0
  7298     1669  0848               	movf	?___fltol,w
  7299     166A  1683               	bsf	3,5	;RP0=1, select bank1
  7300     166B  1303               	bcf	3,6	;RP1=0, select bank1
  7301     166C  0099               	movwf	25	;volatile
  7302     166D                     l97:
  7303     166D  0008               	return
  7304     166E                     __end_of_USART_init:
  7305                           
  7306                           	psect	text26
  7307     12F5                     __ptext26:	
  7308 ;; *************** function ___fltol *****************
  7309 ;; Defined at:
  7310 ;;		line 43 in file "C:\Program Files\Microchip\xc8\v3.00\pic\sources\c99\common\fltol.c"
  7311 ;; Parameters:    Size  Location     Type
  7312 ;;  f1              4   40[BANK0 ] void 
  7313 ;; Auto vars:     Size  Location     Type
  7314 ;;  exp1            1   49[BANK0 ] unsigned char 
  7315 ;;  sign1           1   48[BANK0 ] unsigned char 
  7316 ;; Return value:  Size  Location     Type
  7317 ;;                  4   40[BANK0 ] long 
  7318 ;; Registers used:
  7319 ;;		wreg, status,2, status,0
  7320 ;; Tracked objects:
  7321 ;;		On entry : 0/0
  7322 ;;		On exit  : 0/0
  7323 ;;		Unchanged: 0/0
  7324 ;; Data sizes:     COMMON   BANK0   BANK1   BANK3   BANK2
  7325 ;;      Params:         0       4       0       0       0
  7326 ;;      Locals:         0       2       0       0       0
  7327 ;;      Temps:          0       4       0       0       0
  7328 ;;      Totals:         0      10       0       0       0
  7329 ;;Total ram usage:       10 bytes
  7330 ;; Hardware stack levels used: 1
  7331 ;; Hardware stack levels required when called: 1
  7332 ;; This function calls:
  7333 ;;		Nothing
  7334 ;; This function is called by:
  7335 ;;		_USART_init
  7336 ;;		_main
  7337 ;; This function uses a non-reentrant model
  7338 ;;
  7339                           
  7340     12F5                     ___fltol:	
  7341                           ;psect for function ___fltol
  7342                           
  7343     12F5                     l2759:	
  7344                           ;incstack = 0
  7345                           ; Regs used in ___fltol: [wreg+status,2+status,0]
  7346                           
  7347     12F5  1003               	clrc
  7348     12F6  1283               	bcf	3,5	;RP0=0, select bank0
  7349     12F7  1303               	bcf	3,6	;RP1=0, select bank0
  7350     12F8  0D4A               	rlf	___fltol@f1+2,w
  7351     12F9  0D4B               	rlf	___fltol@f1+3,w
  7352     12FA  00D1               	movwf	___fltol@exp1
  7353     12FB  0851               	movf	___fltol@exp1,w
  7354     12FC  1D03               	btfss	3,2
  7355     12FD  2AFF               	goto	u3411
  7356     12FE  2B00               	goto	u3410
  7357     12FF                     u3411:
  7358     12FF  2B09               	goto	l2765
  7359     1300                     u3410:
  7360     1300                     l2761:
  7361     1300  3000               	movlw	0
  7362     1301  00CB               	movwf	?___fltol+3
  7363     1302  3000               	movlw	0
  7364     1303  00CA               	movwf	?___fltol+2
  7365     1304  3000               	movlw	0
  7366     1305  00C9               	movwf	?___fltol+1
  7367     1306  3000               	movlw	0
  7368     1307  00C8               	movwf	?___fltol
  7369     1308  2B6A               	goto	l482
  7370     1309                     l2765:
  7371     1309  0848               	movf	___fltol@f1,w
  7372     130A  00CC               	movwf	??___fltol
  7373     130B  0849               	movf	___fltol@f1+1,w
  7374     130C  00CD               	movwf	??___fltol+1
  7375     130D  084A               	movf	___fltol@f1+2,w
  7376     130E  00CE               	movwf	??___fltol+2
  7377     130F  084B               	movf	___fltol@f1+3,w
  7378     1310  00CF               	movwf	??___fltol+3
  7379     1311  301F               	movlw	31
  7380     1312                     u3425:
  7381     1312  1003               	clrc
  7382     1313  0CCF               	rrf	??___fltol+3,f
  7383     1314  0CCE               	rrf	??___fltol+2,f
  7384     1315  0CCD               	rrf	??___fltol+1,f
  7385     1316  0CCC               	rrf	??___fltol,f
  7386     1317                     u3420:
  7387     1317  3EFF               	addlw	-1
  7388     1318  1D03               	skipz
  7389     1319  2B12               	goto	u3425
  7390     131A  084C               	movf	??___fltol,w
  7391     131B  00D0               	movwf	___fltol@sign1
  7392     131C                     l2767:
  7393     131C  17CA               	bsf	___fltol@f1+2,7
  7394     131D                     l2769:
  7395     131D  30FF               	movlw	255
  7396     131E  05C8               	andwf	___fltol@f1,f
  7397     131F  30FF               	movlw	255
  7398     1320  05C9               	andwf	___fltol@f1+1,f
  7399     1321  30FF               	movlw	255
  7400     1322  05CA               	andwf	___fltol@f1+2,f
  7401     1323  3000               	movlw	0
  7402     1324  05CB               	andwf	___fltol@f1+3,f
  7403     1325                     l2771:
  7404     1325  3096               	movlw	150
  7405     1326  02D1               	subwf	___fltol@exp1,f
  7406     1327                     l2773:
  7407     1327  1FD1               	btfss	___fltol@exp1,7
  7408     1328  2B2A               	goto	u3431
  7409     1329  2B2B               	goto	u3430
  7410     132A                     u3431:
  7411     132A  2B43               	goto	l2783
  7412     132B                     u3430:
  7413     132B                     l2775:
  7414     132B  0851               	movf	___fltol@exp1,w
  7415     132C  3A80               	xorlw	128
  7416     132D  3E97               	addlw	151
  7417     132E  1803               	skipnc
  7418     132F  2B31               	goto	u3441
  7419     1330  2B32               	goto	u3440
  7420     1331                     u3441:
  7421     1331  2B33               	goto	l2781
  7422     1332                     u3440:
  7423     1332  2B00               	goto	l2761
  7424     1333                     l2781:
  7425     1333  3001               	movlw	1
  7426     1334                     u3455:
  7427     1334  1003               	clrc
  7428     1335  0CCB               	rrf	___fltol@f1+3,f
  7429     1336  0CCA               	rrf	___fltol@f1+2,f
  7430     1337  0CC9               	rrf	___fltol@f1+1,f
  7431     1338  0CC8               	rrf	___fltol@f1,f
  7432     1339  3EFF               	addlw	-1
  7433     133A  1D03               	skipz
  7434     133B  2B34               	goto	u3455
  7435     133C  3001               	movlw	1
  7436     133D  07D1               	addwf	___fltol@exp1,f
  7437     133E  1D03               	btfss	3,2
  7438     133F  2B41               	goto	u3461
  7439     1340  2B42               	goto	u3460
  7440     1341                     u3461:
  7441     1341  2B33               	goto	l2781
  7442     1342                     u3460:
  7443     1342  2B5A               	goto	l2791
  7444     1343                     l2783:
  7445     1343  3020               	movlw	32
  7446     1344  0251               	subwf	___fltol@exp1,w
  7447     1345  1C03               	skipc
  7448     1346  2B48               	goto	u3471
  7449     1347  2B49               	goto	u3470
  7450     1348                     u3471:
  7451     1348  2B55               	goto	l489
  7452     1349                     u3470:
  7453     1349  2B00               	goto	l2761
  7454     134A                     l2789:
  7455     134A  3001               	movlw	1
  7456     134B  00CC               	movwf	??___fltol
  7457     134C                     u3485:
  7458     134C  1003               	clrc
  7459     134D  0DC8               	rlf	___fltol@f1,f
  7460     134E  0DC9               	rlf	___fltol@f1+1,f
  7461     134F  0DCA               	rlf	___fltol@f1+2,f
  7462     1350  0DCB               	rlf	___fltol@f1+3,f
  7463     1351  0BCC               	decfsz	??___fltol,f
  7464     1352  2B4C               	goto	u3485
  7465     1353  3001               	movlw	1
  7466     1354  02D1               	subwf	___fltol@exp1,f
  7467     1355                     l489:
  7468     1355  0851               	movf	___fltol@exp1,w
  7469     1356  1D03               	btfss	3,2
  7470     1357  2B59               	goto	u3491
  7471     1358  2B5A               	goto	u3490
  7472     1359                     u3491:
  7473     1359  2B4A               	goto	l2789
  7474     135A                     u3490:
  7475     135A                     l2791:
  7476     135A  0850               	movf	___fltol@sign1,w
  7477     135B  1903               	btfsc	3,2
  7478     135C  2B5E               	goto	u3501
  7479     135D  2B5F               	goto	u3500
  7480     135E                     u3501:
  7481     135E  2B6A               	goto	l492
  7482     135F                     u3500:
  7483     135F                     l2793:
  7484     135F  09C8               	comf	___fltol@f1,f
  7485     1360  09C9               	comf	___fltol@f1+1,f
  7486     1361  09CA               	comf	___fltol@f1+2,f
  7487     1362  09CB               	comf	___fltol@f1+3,f
  7488     1363  0AC8               	incf	___fltol@f1,f
  7489     1364  1903               	skipnz
  7490     1365  0AC9               	incf	___fltol@f1+1,f
  7491     1366  1903               	skipnz
  7492     1367  0ACA               	incf	___fltol@f1+2,f
  7493     1368  1903               	skipnz
  7494     1369  0ACB               	incf	___fltol@f1+3,f
  7495     136A                     l492:
  7496     136A                     l482:
  7497     136A  0008               	return
  7498     136B                     __end_of___fltol:
  7499                           
  7500                           	psect	text27
  7501     0CBE                     __ptext27:	
  7502 ;; *************** function ___flmul *****************
  7503 ;; Defined at:
  7504 ;;		line 8 in file "C:\Program Files\Microchip\xc8\v3.00\pic\sources\c99\common\sprcmul.c"
  7505 ;; Parameters:    Size  Location     Type
  7506 ;;  b               4   14[BANK0 ] long 
  7507 ;;  a               4   18[BANK0 ] long 
  7508 ;; Auto vars:     Size  Location     Type
  7509 ;;  prod            4   34[BANK0 ] struct .
  7510 ;;  grs             4   28[BANK0 ] unsigned long 
  7511 ;;  temp            2   38[BANK0 ] struct .
  7512 ;;  bexp            1   33[BANK0 ] unsigned char 
  7513 ;;  aexp            1   32[BANK0 ] unsigned char 
  7514 ;;  sign            1   27[BANK0 ] unsigned char 
  7515 ;; Return value:  Size  Location     Type
  7516 ;;                  4   14[BANK0 ] unsigned char 
  7517 ;; Registers used:
  7518 ;;		wreg, status,2, status,0, btemp+1, pclath, cstack
  7519 ;; Tracked objects:
  7520 ;;		On entry : 0/0
  7521 ;;		On exit  : 0/0
  7522 ;;		Unchanged: 0/0
  7523 ;; Data sizes:     COMMON   BANK0   BANK1   BANK3   BANK2
  7524 ;;      Params:         0       8       0       0       0
  7525 ;;      Locals:         0      13       0       0       0
  7526 ;;      Temps:          0       5       0       0       0
  7527 ;;      Totals:         0      26       0       0       0
  7528 ;;Total ram usage:       26 bytes
  7529 ;; Hardware stack levels used: 1
  7530 ;; Hardware stack levels required when called: 2
  7531 ;; This function calls:
  7532 ;;		__Umul8_16
  7533 ;; This function is called by:
  7534 ;;		_USART_init
  7535 ;;		_main
  7536 ;; This function uses a non-reentrant model
  7537 ;;
  7538                           
  7539     0CBE                     ___flmul:	
  7540                           ;psect for function ___flmul
  7541                           
  7542     0CBE                     l3137:	
  7543                           ;incstack = 0
  7544                           ; Regs used in ___flmul: [wreg+status,2+status,0+btemp+1+pclath+cstack]
  7545                           
  7546     0CBE  1283               	bcf	3,5	;RP0=0, select bank0
  7547     0CBF  1303               	bcf	3,6	;RP1=0, select bank0
  7548     0CC0  0831               	movf	___flmul@b+3,w
  7549     0CC1  00BB               	movwf	___flmul@sign
  7550     0CC2                     l3139:
  7551     0CC2  3080               	movlw	128
  7552     0CC3  05BB               	andwf	___flmul@sign,f
  7553     0CC4                     l3141:
  7554     0CC4  0831               	movf	___flmul@b+3,w
  7555     0CC5  00B6               	movwf	??___flmul
  7556     0CC6  0736               	addwf	??___flmul,w
  7557     0CC7  00C1               	movwf	___flmul@bexp
  7558     0CC8                     l3143:
  7559     0CC8  1FB0               	btfss	___flmul@b+2,7
  7560     0CC9  2CCB               	goto	u4261
  7561     0CCA  2CCC               	goto	u4260
  7562     0CCB                     u4261:
  7563     0CCB  2CCD               	goto	l3147
  7564     0CCC                     u4260:
  7565     0CCC                     l3145:
  7566     0CCC  1441               	bsf	___flmul@bexp,0
  7567     0CCD                     l3147:
  7568     0CCD  0841               	movf	___flmul@bexp,w
  7569     0CCE  1903               	btfsc	3,2
  7570     0CCF  2CD1               	goto	u4271
  7571     0CD0  2CD2               	goto	u4270
  7572     0CD1                     u4271:
  7573     0CD1  2CE1               	goto	l3155
  7574     0CD2                     u4270:
  7575     0CD2                     l3149:
  7576     0CD2  0A41               	incf	___flmul@bexp,w
  7577     0CD3  1D03               	btfss	3,2
  7578     0CD4  2CD6               	goto	u4281
  7579     0CD5  2CD7               	goto	u4280
  7580     0CD6                     u4281:
  7581     0CD6  2CDF               	goto	l3153
  7582     0CD7                     u4280:
  7583     0CD7                     l3151:
  7584     0CD7  3000               	movlw	0
  7585     0CD8  00B1               	movwf	___flmul@b+3
  7586     0CD9  3000               	movlw	0
  7587     0CDA  00B0               	movwf	___flmul@b+2
  7588     0CDB  3000               	movlw	0
  7589     0CDC  00AF               	movwf	___flmul@b+1
  7590     0CDD  3000               	movlw	0
  7591     0CDE  00AE               	movwf	___flmul@b
  7592     0CDF                     l3153:
  7593     0CDF  17B0               	bsf	___flmul@b+2,7
  7594     0CE0  2CE9               	goto	l3157
  7595     0CE1                     l3155:
  7596     0CE1  3000               	movlw	0
  7597     0CE2  00B1               	movwf	___flmul@b+3
  7598     0CE3  3000               	movlw	0
  7599     0CE4  00B0               	movwf	___flmul@b+2
  7600     0CE5  3000               	movlw	0
  7601     0CE6  00AF               	movwf	___flmul@b+1
  7602     0CE7  3000               	movlw	0
  7603     0CE8  00AE               	movwf	___flmul@b
  7604     0CE9                     l3157:
  7605     0CE9  0835               	movf	___flmul@a+3,w
  7606     0CEA  3980               	andlw	128
  7607     0CEB  06BB               	xorwf	___flmul@sign,f
  7608     0CEC                     l3159:
  7609     0CEC  0835               	movf	___flmul@a+3,w
  7610     0CED  00B6               	movwf	??___flmul
  7611     0CEE  0736               	addwf	??___flmul,w
  7612     0CEF  00C0               	movwf	___flmul@aexp
  7613     0CF0                     l3161:
  7614     0CF0  1FB4               	btfss	___flmul@a+2,7
  7615     0CF1  2CF3               	goto	u4291
  7616     0CF2  2CF4               	goto	u4290
  7617     0CF3                     u4291:
  7618     0CF3  2CF5               	goto	l3165
  7619     0CF4                     u4290:
  7620     0CF4                     l3163:
  7621     0CF4  1440               	bsf	___flmul@aexp,0
  7622     0CF5                     l3165:
  7623     0CF5  0840               	movf	___flmul@aexp,w
  7624     0CF6  1903               	btfsc	3,2
  7625     0CF7  2CF9               	goto	u4301
  7626     0CF8  2CFA               	goto	u4300
  7627     0CF9                     u4301:
  7628     0CF9  2D09               	goto	l3173
  7629     0CFA                     u4300:
  7630     0CFA                     l3167:
  7631     0CFA  0A40               	incf	___flmul@aexp,w
  7632     0CFB  1D03               	btfss	3,2
  7633     0CFC  2CFE               	goto	u4311
  7634     0CFD  2CFF               	goto	u4310
  7635     0CFE                     u4311:
  7636     0CFE  2D07               	goto	l3171
  7637     0CFF                     u4310:
  7638     0CFF                     l3169:
  7639     0CFF  3000               	movlw	0
  7640     0D00  00B5               	movwf	___flmul@a+3
  7641     0D01  3000               	movlw	0
  7642     0D02  00B4               	movwf	___flmul@a+2
  7643     0D03  3000               	movlw	0
  7644     0D04  00B3               	movwf	___flmul@a+1
  7645     0D05  3000               	movlw	0
  7646     0D06  00B2               	movwf	___flmul@a
  7647     0D07                     l3171:
  7648     0D07  17B4               	bsf	___flmul@a+2,7
  7649     0D08  2D11               	goto	l3175
  7650     0D09                     l3173:
  7651     0D09  3000               	movlw	0
  7652     0D0A  00B5               	movwf	___flmul@a+3
  7653     0D0B  3000               	movlw	0
  7654     0D0C  00B4               	movwf	___flmul@a+2
  7655     0D0D  3000               	movlw	0
  7656     0D0E  00B3               	movwf	___flmul@a+1
  7657     0D0F  3000               	movlw	0
  7658     0D10  00B2               	movwf	___flmul@a
  7659     0D11                     l3175:
  7660     0D11  0840               	movf	___flmul@aexp,w
  7661     0D12  1903               	btfsc	3,2
  7662     0D13  2D15               	goto	u4321
  7663     0D14  2D16               	goto	u4320
  7664     0D15                     u4321:
  7665     0D15  2D1B               	goto	l3179
  7666     0D16                     u4320:
  7667     0D16                     l3177:
  7668     0D16  0841               	movf	___flmul@bexp,w
  7669     0D17  1D03               	btfss	3,2
  7670     0D18  2D1A               	goto	u4331
  7671     0D19  2D1B               	goto	u4330
  7672     0D1A                     u4331:
  7673     0D1A  2D24               	goto	l3183
  7674     0D1B                     u4330:
  7675     0D1B                     l3179:
  7676     0D1B  3000               	movlw	0
  7677     0D1C  00B1               	movwf	?___flmul+3
  7678     0D1D  3000               	movlw	0
  7679     0D1E  00B0               	movwf	?___flmul+2
  7680     0D1F  3000               	movlw	0
  7681     0D20  00AF               	movwf	?___flmul+1
  7682     0D21  3000               	movlw	0
  7683     0D22  00AE               	movwf	?___flmul
  7684     0D23  2FFF               	goto	l685
  7685     0D24                     l3183:
  7686     0D24  082E               	movf	___flmul@b,w
  7687     0D25  00A0               	movwf	__Umul8_16@multiplicand
  7688     0D26  0834               	movf	___flmul@a+2,w
  7689     0D27  160A  158A  26EC  120A  158A  	fcall	__Umul8_16
  7690     0D2C  1283               	bcf	3,5	;RP0=0, select bank0
  7691     0D2D  1303               	bcf	3,6	;RP1=0, select bank0
  7692     0D2E  0821               	movf	?__Umul8_16+1,w
  7693     0D2F  00C7               	movwf	___flmul@temp+1
  7694     0D30  0820               	movf	?__Umul8_16,w
  7695     0D31  00C6               	movwf	___flmul@temp
  7696     0D32                     l3185:
  7697     0D32  0846               	movf	___flmul@temp,w
  7698     0D33  00B6               	movwf	??___flmul
  7699     0D34  01B7               	clrf	??___flmul+1
  7700     0D35  01B8               	clrf	??___flmul+2
  7701     0D36  01B9               	clrf	??___flmul+3
  7702     0D37  0839               	movf	??___flmul+3,w
  7703     0D38  00BF               	movwf	___flmul@grs+3
  7704     0D39  0838               	movf	??___flmul+2,w
  7705     0D3A  00BE               	movwf	___flmul@grs+2
  7706     0D3B  0837               	movf	??___flmul+1,w
  7707     0D3C  00BD               	movwf	___flmul@grs+1
  7708     0D3D  0836               	movf	??___flmul,w
  7709     0D3E  00BC               	movwf	___flmul@grs
  7710     0D3F                     l3187:
  7711     0D3F  0847               	movf	___flmul@temp+1,w
  7712     0D40  00B6               	movwf	??___flmul
  7713     0D41  01B7               	clrf	??___flmul+1
  7714     0D42  01B8               	clrf	??___flmul+2
  7715     0D43  01B9               	clrf	??___flmul+3
  7716     0D44  0839               	movf	??___flmul+3,w
  7717     0D45  00C5               	movwf	___flmul@prod+3
  7718     0D46  0838               	movf	??___flmul+2,w
  7719     0D47  00C4               	movwf	___flmul@prod+2
  7720     0D48  0837               	movf	??___flmul+1,w
  7721     0D49  00C3               	movwf	___flmul@prod+1
  7722     0D4A  0836               	movf	??___flmul,w
  7723     0D4B  00C2               	movwf	___flmul@prod
  7724     0D4C  082F               	movf	___flmul@b+1,w
  7725     0D4D  00A0               	movwf	__Umul8_16@multiplicand
  7726     0D4E  0833               	movf	___flmul@a+1,w
  7727     0D4F  160A  158A  26EC  120A  158A  	fcall	__Umul8_16
  7728     0D54  1283               	bcf	3,5	;RP0=0, select bank0
  7729     0D55  1303               	bcf	3,6	;RP1=0, select bank0
  7730     0D56  0821               	movf	?__Umul8_16+1,w
  7731     0D57  00C7               	movwf	___flmul@temp+1
  7732     0D58  0820               	movf	?__Umul8_16,w
  7733     0D59  00C6               	movwf	___flmul@temp
  7734     0D5A                     l3189:
  7735     0D5A  0846               	movf	___flmul@temp,w
  7736     0D5B  00B6               	movwf	??___flmul
  7737     0D5C  01B7               	clrf	??___flmul+1
  7738     0D5D  01B8               	clrf	??___flmul+2
  7739     0D5E  01B9               	clrf	??___flmul+3
  7740     0D5F  0836               	movf	??___flmul,w
  7741     0D60  07BC               	addwf	___flmul@grs,f
  7742     0D61  0837               	movf	??___flmul+1,w
  7743     0D62  1103               	clrz
  7744     0D63  1803               	skipnc
  7745     0D64  3E01               	addlw	1
  7746     0D65  1903               	skipnz
  7747     0D66  2D68               	goto	u4341
  7748     0D67  07BD               	addwf	___flmul@grs+1,f
  7749     0D68                     u4341:
  7750     0D68  0838               	movf	??___flmul+2,w
  7751     0D69  1103               	clrz
  7752     0D6A  1803               	skipnc
  7753     0D6B  3E01               	addlw	1
  7754     0D6C  1903               	skipnz
  7755     0D6D  2D6F               	goto	u4342
  7756     0D6E  07BE               	addwf	___flmul@grs+2,f
  7757     0D6F                     u4342:
  7758     0D6F  0839               	movf	??___flmul+3,w
  7759     0D70  1103               	clrz
  7760     0D71  1803               	skipnc
  7761     0D72  3E01               	addlw	1
  7762     0D73  1903               	skipnz
  7763     0D74  2D76               	goto	u4343
  7764     0D75  07BF               	addwf	___flmul@grs+3,f
  7765     0D76                     u4343:
  7766     0D76                     l3191:
  7767     0D76  0847               	movf	___flmul@temp+1,w
  7768     0D77  00B6               	movwf	??___flmul
  7769     0D78  01B7               	clrf	??___flmul+1
  7770     0D79  01B8               	clrf	??___flmul+2
  7771     0D7A  01B9               	clrf	??___flmul+3
  7772     0D7B  0836               	movf	??___flmul,w
  7773     0D7C  07C2               	addwf	___flmul@prod,f
  7774     0D7D  0837               	movf	??___flmul+1,w
  7775     0D7E  1103               	clrz
  7776     0D7F  1803               	skipnc
  7777     0D80  3E01               	addlw	1
  7778     0D81  1903               	skipnz
  7779     0D82  2D84               	goto	u4351
  7780     0D83  07C3               	addwf	___flmul@prod+1,f
  7781     0D84                     u4351:
  7782     0D84  0838               	movf	??___flmul+2,w
  7783     0D85  1103               	clrz
  7784     0D86  1803               	skipnc
  7785     0D87  3E01               	addlw	1
  7786     0D88  1903               	skipnz
  7787     0D89  2D8B               	goto	u4352
  7788     0D8A  07C4               	addwf	___flmul@prod+2,f
  7789     0D8B                     u4352:
  7790     0D8B  0839               	movf	??___flmul+3,w
  7791     0D8C  1103               	clrz
  7792     0D8D  1803               	skipnc
  7793     0D8E  3E01               	addlw	1
  7794     0D8F  1903               	skipnz
  7795     0D90  2D92               	goto	u4353
  7796     0D91  07C5               	addwf	___flmul@prod+3,f
  7797     0D92                     u4353:
  7798     0D92  0830               	movf	___flmul@b+2,w
  7799     0D93  00A0               	movwf	__Umul8_16@multiplicand
  7800     0D94  0832               	movf	___flmul@a,w
  7801     0D95  160A  158A  26EC  120A  158A  	fcall	__Umul8_16
  7802     0D9A  1283               	bcf	3,5	;RP0=0, select bank0
  7803     0D9B  1303               	bcf	3,6	;RP1=0, select bank0
  7804     0D9C  0821               	movf	?__Umul8_16+1,w
  7805     0D9D  00C7               	movwf	___flmul@temp+1
  7806     0D9E  0820               	movf	?__Umul8_16,w
  7807     0D9F  00C6               	movwf	___flmul@temp
  7808     0DA0                     l3193:
  7809     0DA0  0846               	movf	___flmul@temp,w
  7810     0DA1  00B6               	movwf	??___flmul
  7811     0DA2  01B7               	clrf	??___flmul+1
  7812     0DA3  01B8               	clrf	??___flmul+2
  7813     0DA4  01B9               	clrf	??___flmul+3
  7814     0DA5  0836               	movf	??___flmul,w
  7815     0DA6  07BC               	addwf	___flmul@grs,f
  7816     0DA7  0837               	movf	??___flmul+1,w
  7817     0DA8  1103               	clrz
  7818     0DA9  1803               	skipnc
  7819     0DAA  3E01               	addlw	1
  7820     0DAB  1903               	skipnz
  7821     0DAC  2DAE               	goto	u4361
  7822     0DAD  07BD               	addwf	___flmul@grs+1,f
  7823     0DAE                     u4361:
  7824     0DAE  0838               	movf	??___flmul+2,w
  7825     0DAF  1103               	clrz
  7826     0DB0  1803               	skipnc
  7827     0DB1  3E01               	addlw	1
  7828     0DB2  1903               	skipnz
  7829     0DB3  2DB5               	goto	u4362
  7830     0DB4  07BE               	addwf	___flmul@grs+2,f
  7831     0DB5                     u4362:
  7832     0DB5  0839               	movf	??___flmul+3,w
  7833     0DB6  1103               	clrz
  7834     0DB7  1803               	skipnc
  7835     0DB8  3E01               	addlw	1
  7836     0DB9  1903               	skipnz
  7837     0DBA  2DBC               	goto	u4363
  7838     0DBB  07BF               	addwf	___flmul@grs+3,f
  7839     0DBC                     u4363:
  7840     0DBC                     l3195:
  7841     0DBC  0847               	movf	___flmul@temp+1,w
  7842     0DBD  00B6               	movwf	??___flmul
  7843     0DBE  01B7               	clrf	??___flmul+1
  7844     0DBF  01B8               	clrf	??___flmul+2
  7845     0DC0  01B9               	clrf	??___flmul+3
  7846     0DC1  0836               	movf	??___flmul,w
  7847     0DC2  07C2               	addwf	___flmul@prod,f
  7848     0DC3  0837               	movf	??___flmul+1,w
  7849     0DC4  1103               	clrz
  7850     0DC5  1803               	skipnc
  7851     0DC6  3E01               	addlw	1
  7852     0DC7  1903               	skipnz
  7853     0DC8  2DCA               	goto	u4371
  7854     0DC9  07C3               	addwf	___flmul@prod+1,f
  7855     0DCA                     u4371:
  7856     0DCA  0838               	movf	??___flmul+2,w
  7857     0DCB  1103               	clrz
  7858     0DCC  1803               	skipnc
  7859     0DCD  3E01               	addlw	1
  7860     0DCE  1903               	skipnz
  7861     0DCF  2DD1               	goto	u4372
  7862     0DD0  07C4               	addwf	___flmul@prod+2,f
  7863     0DD1                     u4372:
  7864     0DD1  0839               	movf	??___flmul+3,w
  7865     0DD2  1103               	clrz
  7866     0DD3  1803               	skipnc
  7867     0DD4  3E01               	addlw	1
  7868     0DD5  1903               	skipnz
  7869     0DD6  2DD8               	goto	u4373
  7870     0DD7  07C5               	addwf	___flmul@prod+3,f
  7871     0DD8                     u4373:
  7872     0DD8                     l3197:
  7873     0DD8  3008               	movlw	8
  7874     0DD9  00B6               	movwf	??___flmul
  7875     0DDA                     u4385:
  7876     0DDA  1003               	clrc
  7877     0DDB  0DBC               	rlf	___flmul@grs,f
  7878     0DDC  0DBD               	rlf	___flmul@grs+1,f
  7879     0DDD  0DBE               	rlf	___flmul@grs+2,f
  7880     0DDE  0DBF               	rlf	___flmul@grs+3,f
  7881     0DDF  0BB6               	decfsz	??___flmul,f
  7882     0DE0  2DDA               	goto	u4385
  7883     0DE1                     l3199:
  7884     0DE1  082F               	movf	___flmul@b+1,w
  7885     0DE2  00A0               	movwf	__Umul8_16@multiplicand
  7886     0DE3  0832               	movf	___flmul@a,w
  7887     0DE4  160A  158A  26EC  120A  158A  	fcall	__Umul8_16
  7888     0DE9  1283               	bcf	3,5	;RP0=0, select bank0
  7889     0DEA  1303               	bcf	3,6	;RP1=0, select bank0
  7890     0DEB  0821               	movf	?__Umul8_16+1,w
  7891     0DEC  00C7               	movwf	___flmul@temp+1
  7892     0DED  0820               	movf	?__Umul8_16,w
  7893     0DEE  00C6               	movwf	___flmul@temp
  7894     0DEF                     l3201:
  7895     0DEF  0846               	movf	___flmul@temp,w
  7896     0DF0  00B6               	movwf	??___flmul
  7897     0DF1  0847               	movf	___flmul@temp+1,w
  7898     0DF2  00B7               	movwf	??___flmul+1
  7899     0DF3  01B8               	clrf	??___flmul+2
  7900     0DF4  01B9               	clrf	??___flmul+3
  7901     0DF5  0836               	movf	??___flmul,w
  7902     0DF6  07BC               	addwf	___flmul@grs,f
  7903     0DF7  0837               	movf	??___flmul+1,w
  7904     0DF8  1103               	clrz
  7905     0DF9  1803               	skipnc
  7906     0DFA  3E01               	addlw	1
  7907     0DFB  1903               	skipnz
  7908     0DFC  2DFE               	goto	u4391
  7909     0DFD  07BD               	addwf	___flmul@grs+1,f
  7910     0DFE                     u4391:
  7911     0DFE  0838               	movf	??___flmul+2,w
  7912     0DFF  1103               	clrz
  7913     0E00  1803               	skipnc
  7914     0E01  3E01               	addlw	1
  7915     0E02  1903               	skipnz
  7916     0E03  2E05               	goto	u4392
  7917     0E04  07BE               	addwf	___flmul@grs+2,f
  7918     0E05                     u4392:
  7919     0E05  0839               	movf	??___flmul+3,w
  7920     0E06  1103               	clrz
  7921     0E07  1803               	skipnc
  7922     0E08  3E01               	addlw	1
  7923     0E09  1903               	skipnz
  7924     0E0A  2E0C               	goto	u4393
  7925     0E0B  07BF               	addwf	___flmul@grs+3,f
  7926     0E0C                     u4393:
  7927     0E0C                     l3203:
  7928     0E0C  082E               	movf	___flmul@b,w
  7929     0E0D  00A0               	movwf	__Umul8_16@multiplicand
  7930     0E0E  0833               	movf	___flmul@a+1,w
  7931     0E0F  160A  158A  26EC  120A  158A  	fcall	__Umul8_16
  7932     0E14  1283               	bcf	3,5	;RP0=0, select bank0
  7933     0E15  1303               	bcf	3,6	;RP1=0, select bank0
  7934     0E16  0821               	movf	?__Umul8_16+1,w
  7935     0E17  00C7               	movwf	___flmul@temp+1
  7936     0E18  0820               	movf	?__Umul8_16,w
  7937     0E19  00C6               	movwf	___flmul@temp
  7938     0E1A                     l3205:
  7939     0E1A  0846               	movf	___flmul@temp,w
  7940     0E1B  00B6               	movwf	??___flmul
  7941     0E1C  0847               	movf	___flmul@temp+1,w
  7942     0E1D  00B7               	movwf	??___flmul+1
  7943     0E1E  01B8               	clrf	??___flmul+2
  7944     0E1F  01B9               	clrf	??___flmul+3
  7945     0E20  0836               	movf	??___flmul,w
  7946     0E21  07BC               	addwf	___flmul@grs,f
  7947     0E22  0837               	movf	??___flmul+1,w
  7948     0E23  1103               	clrz
  7949     0E24  1803               	skipnc
  7950     0E25  3E01               	addlw	1
  7951     0E26  1903               	skipnz
  7952     0E27  2E29               	goto	u4401
  7953     0E28  07BD               	addwf	___flmul@grs+1,f
  7954     0E29                     u4401:
  7955     0E29  0838               	movf	??___flmul+2,w
  7956     0E2A  1103               	clrz
  7957     0E2B  1803               	skipnc
  7958     0E2C  3E01               	addlw	1
  7959     0E2D  1903               	skipnz
  7960     0E2E  2E30               	goto	u4402
  7961     0E2F  07BE               	addwf	___flmul@grs+2,f
  7962     0E30                     u4402:
  7963     0E30  0839               	movf	??___flmul+3,w
  7964     0E31  1103               	clrz
  7965     0E32  1803               	skipnc
  7966     0E33  3E01               	addlw	1
  7967     0E34  1903               	skipnz
  7968     0E35  2E37               	goto	u4403
  7969     0E36  07BF               	addwf	___flmul@grs+3,f
  7970     0E37                     u4403:
  7971     0E37                     l3207:
  7972     0E37  3008               	movlw	8
  7973     0E38  00B6               	movwf	??___flmul
  7974     0E39                     u4415:
  7975     0E39  1003               	clrc
  7976     0E3A  0DBC               	rlf	___flmul@grs,f
  7977     0E3B  0DBD               	rlf	___flmul@grs+1,f
  7978     0E3C  0DBE               	rlf	___flmul@grs+2,f
  7979     0E3D  0DBF               	rlf	___flmul@grs+3,f
  7980     0E3E  0BB6               	decfsz	??___flmul,f
  7981     0E3F  2E39               	goto	u4415
  7982     0E40  082E               	movf	___flmul@b,w
  7983     0E41  00A0               	movwf	__Umul8_16@multiplicand
  7984     0E42  0832               	movf	___flmul@a,w
  7985     0E43  160A  158A  26EC  120A  158A  	fcall	__Umul8_16
  7986     0E48  1283               	bcf	3,5	;RP0=0, select bank0
  7987     0E49  1303               	bcf	3,6	;RP1=0, select bank0
  7988     0E4A  0821               	movf	?__Umul8_16+1,w
  7989     0E4B  00C7               	movwf	___flmul@temp+1
  7990     0E4C  0820               	movf	?__Umul8_16,w
  7991     0E4D  00C6               	movwf	___flmul@temp
  7992     0E4E                     l3209:
  7993     0E4E  0846               	movf	___flmul@temp,w
  7994     0E4F  00B6               	movwf	??___flmul
  7995     0E50  0847               	movf	___flmul@temp+1,w
  7996     0E51  00B7               	movwf	??___flmul+1
  7997     0E52  01B8               	clrf	??___flmul+2
  7998     0E53  01B9               	clrf	??___flmul+3
  7999     0E54  0836               	movf	??___flmul,w
  8000     0E55  07BC               	addwf	___flmul@grs,f
  8001     0E56  0837               	movf	??___flmul+1,w
  8002     0E57  1103               	clrz
  8003     0E58  1803               	skipnc
  8004     0E59  3E01               	addlw	1
  8005     0E5A  1903               	skipnz
  8006     0E5B  2E5D               	goto	u4421
  8007     0E5C  07BD               	addwf	___flmul@grs+1,f
  8008     0E5D                     u4421:
  8009     0E5D  0838               	movf	??___flmul+2,w
  8010     0E5E  1103               	clrz
  8011     0E5F  1803               	skipnc
  8012     0E60  3E01               	addlw	1
  8013     0E61  1903               	skipnz
  8014     0E62  2E64               	goto	u4422
  8015     0E63  07BE               	addwf	___flmul@grs+2,f
  8016     0E64                     u4422:
  8017     0E64  0839               	movf	??___flmul+3,w
  8018     0E65  1103               	clrz
  8019     0E66  1803               	skipnc
  8020     0E67  3E01               	addlw	1
  8021     0E68  1903               	skipnz
  8022     0E69  2E6B               	goto	u4423
  8023     0E6A  07BF               	addwf	___flmul@grs+3,f
  8024     0E6B                     u4423:
  8025     0E6B                     l3211:
  8026     0E6B  082F               	movf	___flmul@b+1,w
  8027     0E6C  00A0               	movwf	__Umul8_16@multiplicand
  8028     0E6D  0834               	movf	___flmul@a+2,w
  8029     0E6E  160A  158A  26EC  120A  158A  	fcall	__Umul8_16
  8030     0E73  1283               	bcf	3,5	;RP0=0, select bank0
  8031     0E74  1303               	bcf	3,6	;RP1=0, select bank0
  8032     0E75  0821               	movf	?__Umul8_16+1,w
  8033     0E76  00C7               	movwf	___flmul@temp+1
  8034     0E77  0820               	movf	?__Umul8_16,w
  8035     0E78  00C6               	movwf	___flmul@temp
  8036     0E79  0846               	movf	___flmul@temp,w
  8037     0E7A  00B6               	movwf	??___flmul
  8038     0E7B  0847               	movf	___flmul@temp+1,w
  8039     0E7C  00B7               	movwf	??___flmul+1
  8040     0E7D  01B8               	clrf	??___flmul+2
  8041     0E7E  01B9               	clrf	??___flmul+3
  8042     0E7F  0836               	movf	??___flmul,w
  8043     0E80  07C2               	addwf	___flmul@prod,f
  8044     0E81  0837               	movf	??___flmul+1,w
  8045     0E82  1103               	clrz
  8046     0E83  1803               	skipnc
  8047     0E84  3E01               	addlw	1
  8048     0E85  1903               	skipnz
  8049     0E86  2E88               	goto	u4431
  8050     0E87  07C3               	addwf	___flmul@prod+1,f
  8051     0E88                     u4431:
  8052     0E88  0838               	movf	??___flmul+2,w
  8053     0E89  1103               	clrz
  8054     0E8A  1803               	skipnc
  8055     0E8B  3E01               	addlw	1
  8056     0E8C  1903               	skipnz
  8057     0E8D  2E8F               	goto	u4432
  8058     0E8E  07C4               	addwf	___flmul@prod+2,f
  8059     0E8F                     u4432:
  8060     0E8F  0839               	movf	??___flmul+3,w
  8061     0E90  1103               	clrz
  8062     0E91  1803               	skipnc
  8063     0E92  3E01               	addlw	1
  8064     0E93  1903               	skipnz
  8065     0E94  2E96               	goto	u4433
  8066     0E95  07C5               	addwf	___flmul@prod+3,f
  8067     0E96                     u4433:
  8068     0E96                     l3213:
  8069     0E96  0830               	movf	___flmul@b+2,w
  8070     0E97  00A0               	movwf	__Umul8_16@multiplicand
  8071     0E98  0833               	movf	___flmul@a+1,w
  8072     0E99  160A  158A  26EC  120A  158A  	fcall	__Umul8_16
  8073     0E9E  1283               	bcf	3,5	;RP0=0, select bank0
  8074     0E9F  1303               	bcf	3,6	;RP1=0, select bank0
  8075     0EA0  0821               	movf	?__Umul8_16+1,w
  8076     0EA1  00C7               	movwf	___flmul@temp+1
  8077     0EA2  0820               	movf	?__Umul8_16,w
  8078     0EA3  00C6               	movwf	___flmul@temp
  8079     0EA4                     l3215:
  8080     0EA4  0846               	movf	___flmul@temp,w
  8081     0EA5  00B6               	movwf	??___flmul
  8082     0EA6  0847               	movf	___flmul@temp+1,w
  8083     0EA7  00B7               	movwf	??___flmul+1
  8084     0EA8  01B8               	clrf	??___flmul+2
  8085     0EA9  01B9               	clrf	??___flmul+3
  8086     0EAA  0836               	movf	??___flmul,w
  8087     0EAB  07C2               	addwf	___flmul@prod,f
  8088     0EAC  0837               	movf	??___flmul+1,w
  8089     0EAD  1103               	clrz
  8090     0EAE  1803               	skipnc
  8091     0EAF  3E01               	addlw	1
  8092     0EB0  1903               	skipnz
  8093     0EB1  2EB3               	goto	u4441
  8094     0EB2  07C3               	addwf	___flmul@prod+1,f
  8095     0EB3                     u4441:
  8096     0EB3  0838               	movf	??___flmul+2,w
  8097     0EB4  1103               	clrz
  8098     0EB5  1803               	skipnc
  8099     0EB6  3E01               	addlw	1
  8100     0EB7  1903               	skipnz
  8101     0EB8  2EBA               	goto	u4442
  8102     0EB9  07C4               	addwf	___flmul@prod+2,f
  8103     0EBA                     u4442:
  8104     0EBA  0839               	movf	??___flmul+3,w
  8105     0EBB  1103               	clrz
  8106     0EBC  1803               	skipnc
  8107     0EBD  3E01               	addlw	1
  8108     0EBE  1903               	skipnz
  8109     0EBF  2EC1               	goto	u4443
  8110     0EC0  07C5               	addwf	___flmul@prod+3,f
  8111     0EC1                     u4443:
  8112     0EC1  0830               	movf	___flmul@b+2,w
  8113     0EC2  00A0               	movwf	__Umul8_16@multiplicand
  8114     0EC3  0834               	movf	___flmul@a+2,w
  8115     0EC4  160A  158A  26EC  120A  158A  	fcall	__Umul8_16
  8116     0EC9  1283               	bcf	3,5	;RP0=0, select bank0
  8117     0ECA  1303               	bcf	3,6	;RP1=0, select bank0
  8118     0ECB  0821               	movf	?__Umul8_16+1,w
  8119     0ECC  00C7               	movwf	___flmul@temp+1
  8120     0ECD  0820               	movf	?__Umul8_16,w
  8121     0ECE  00C6               	movwf	___flmul@temp
  8122     0ECF                     l3217:
  8123     0ECF  0846               	movf	___flmul@temp,w
  8124     0ED0  00B6               	movwf	??___flmul
  8125     0ED1  0847               	movf	___flmul@temp+1,w
  8126     0ED2  00B7               	movwf	??___flmul+1
  8127     0ED3  01B8               	clrf	??___flmul+2
  8128     0ED4  01B9               	clrf	??___flmul+3
  8129     0ED5  3008               	movlw	8
  8130     0ED6                     u4455:
  8131     0ED6  1003               	clrc
  8132     0ED7  0DB6               	rlf	??___flmul,f
  8133     0ED8  0DB7               	rlf	??___flmul+1,f
  8134     0ED9  0DB8               	rlf	??___flmul+2,f
  8135     0EDA  0DB9               	rlf	??___flmul+3,f
  8136     0EDB                     u4450:
  8137     0EDB  3EFF               	addlw	-1
  8138     0EDC  1D03               	skipz
  8139     0EDD  2ED6               	goto	u4455
  8140     0EDE  0836               	movf	??___flmul,w
  8141     0EDF  07C2               	addwf	___flmul@prod,f
  8142     0EE0  0837               	movf	??___flmul+1,w
  8143     0EE1  1103               	clrz
  8144     0EE2  1803               	skipnc
  8145     0EE3  3E01               	addlw	1
  8146     0EE4  1903               	skipnz
  8147     0EE5  2EE7               	goto	u4461
  8148     0EE6  07C3               	addwf	___flmul@prod+1,f
  8149     0EE7                     u4461:
  8150     0EE7  0838               	movf	??___flmul+2,w
  8151     0EE8  1103               	clrz
  8152     0EE9  1803               	skipnc
  8153     0EEA  3E01               	addlw	1
  8154     0EEB  1903               	skipnz
  8155     0EEC  2EEE               	goto	u4462
  8156     0EED  07C4               	addwf	___flmul@prod+2,f
  8157     0EEE                     u4462:
  8158     0EEE  0839               	movf	??___flmul+3,w
  8159     0EEF  1103               	clrz
  8160     0EF0  1803               	skipnc
  8161     0EF1  3E01               	addlw	1
  8162     0EF2  1903               	skipnz
  8163     0EF3  2EF5               	goto	u4463
  8164     0EF4  07C5               	addwf	___flmul@prod+3,f
  8165     0EF5                     u4463:
  8166     0EF5                     l3219:
  8167     0EF5  083C               	movf	___flmul@grs,w
  8168     0EF6  00B6               	movwf	??___flmul
  8169     0EF7  083D               	movf	___flmul@grs+1,w
  8170     0EF8  00B7               	movwf	??___flmul+1
  8171     0EF9  083E               	movf	___flmul@grs+2,w
  8172     0EFA  00B8               	movwf	??___flmul+2
  8173     0EFB  083F               	movf	___flmul@grs+3,w
  8174     0EFC  00B9               	movwf	??___flmul+3
  8175     0EFD  3018               	movlw	24
  8176     0EFE                     u4475:
  8177     0EFE  1003               	clrc
  8178     0EFF  0CB9               	rrf	??___flmul+3,f
  8179     0F00  0CB8               	rrf	??___flmul+2,f
  8180     0F01  0CB7               	rrf	??___flmul+1,f
  8181     0F02  0CB6               	rrf	??___flmul,f
  8182     0F03                     u4470:
  8183     0F03  3EFF               	addlw	-1
  8184     0F04  1D03               	skipz
  8185     0F05  2EFE               	goto	u4475
  8186     0F06  0836               	movf	??___flmul,w
  8187     0F07  07C2               	addwf	___flmul@prod,f
  8188     0F08  0837               	movf	??___flmul+1,w
  8189     0F09  1103               	clrz
  8190     0F0A  1803               	skipnc
  8191     0F0B  3E01               	addlw	1
  8192     0F0C  1903               	skipnz
  8193     0F0D  2F0F               	goto	u4481
  8194     0F0E  07C3               	addwf	___flmul@prod+1,f
  8195     0F0F                     u4481:
  8196     0F0F  0838               	movf	??___flmul+2,w
  8197     0F10  1103               	clrz
  8198     0F11  1803               	skipnc
  8199     0F12  3E01               	addlw	1
  8200     0F13  1903               	skipnz
  8201     0F14  2F16               	goto	u4482
  8202     0F15  07C4               	addwf	___flmul@prod+2,f
  8203     0F16                     u4482:
  8204     0F16  0839               	movf	??___flmul+3,w
  8205     0F17  1103               	clrz
  8206     0F18  1803               	skipnc
  8207     0F19  3E01               	addlw	1
  8208     0F1A  1903               	skipnz
  8209     0F1B  2F1D               	goto	u4483
  8210     0F1C  07C5               	addwf	___flmul@prod+3,f
  8211     0F1D                     u4483:
  8212     0F1D                     l3221:
  8213     0F1D  3008               	movlw	8
  8214     0F1E  00B6               	movwf	??___flmul
  8215     0F1F                     u4495:
  8216     0F1F  1003               	clrc
  8217     0F20  0DBC               	rlf	___flmul@grs,f
  8218     0F21  0DBD               	rlf	___flmul@grs+1,f
  8219     0F22  0DBE               	rlf	___flmul@grs+2,f
  8220     0F23  0DBF               	rlf	___flmul@grs+3,f
  8221     0F24  0BB6               	decfsz	??___flmul,f
  8222     0F25  2F1F               	goto	u4495
  8223     0F26                     l3223:
  8224     0F26  0841               	movf	___flmul@bexp,w
  8225     0F27  0740               	addwf	___flmul@aexp,w
  8226     0F28  00B6               	movwf	??___flmul
  8227     0F29  01B7               	clrf	??___flmul+1
  8228     0F2A  0DB7               	rlf	??___flmul+1,f
  8229     0F2B  0836               	movf	??___flmul,w
  8230     0F2C  3E82               	addlw	130
  8231     0F2D  00C6               	movwf	___flmul@temp
  8232     0F2E  0837               	movf	??___flmul+1,w
  8233     0F2F  1803               	skipnc
  8234     0F30  3E01               	addlw	1
  8235     0F31  3EFF               	addlw	255
  8236     0F32  00C7               	movwf	___flmul@temp+1
  8237     0F33  2F51               	goto	l3235
  8238     0F34                     l3225:
  8239     0F34  3001               	movlw	1
  8240     0F35  00B6               	movwf	??___flmul
  8241     0F36                     u4505:
  8242     0F36  1003               	clrc
  8243     0F37  0DC2               	rlf	___flmul@prod,f
  8244     0F38  0DC3               	rlf	___flmul@prod+1,f
  8245     0F39  0DC4               	rlf	___flmul@prod+2,f
  8246     0F3A  0DC5               	rlf	___flmul@prod+3,f
  8247     0F3B  0BB6               	decfsz	??___flmul,f
  8248     0F3C  2F36               	goto	u4505
  8249     0F3D                     l3227:
  8250     0F3D  1FBF               	btfss	___flmul@grs+3,7
  8251     0F3E  2F40               	goto	u4511
  8252     0F3F  2F41               	goto	u4510
  8253     0F40                     u4511:
  8254     0F40  2F42               	goto	l3231
  8255     0F41                     u4510:
  8256     0F41                     l3229:
  8257     0F41  1442               	bsf	___flmul@prod,0
  8258     0F42                     l3231:
  8259     0F42  3001               	movlw	1
  8260     0F43  00B6               	movwf	??___flmul
  8261     0F44                     u4525:
  8262     0F44  1003               	clrc
  8263     0F45  0DBC               	rlf	___flmul@grs,f
  8264     0F46  0DBD               	rlf	___flmul@grs+1,f
  8265     0F47  0DBE               	rlf	___flmul@grs+2,f
  8266     0F48  0DBF               	rlf	___flmul@grs+3,f
  8267     0F49  0BB6               	decfsz	??___flmul,f
  8268     0F4A  2F44               	goto	u4525
  8269     0F4B                     l3233:
  8270     0F4B  30FF               	movlw	255
  8271     0F4C  07C6               	addwf	___flmul@temp,f
  8272     0F4D  1803               	skipnc
  8273     0F4E  0AC7               	incf	___flmul@temp+1,f
  8274     0F4F  30FF               	movlw	255
  8275     0F50  07C7               	addwf	___flmul@temp+1,f
  8276     0F51                     l3235:
  8277     0F51  1FC4               	btfss	___flmul@prod+2,7
  8278     0F52  2F54               	goto	u4531
  8279     0F53  2F55               	goto	u4530
  8280     0F54                     u4531:
  8281     0F54  2F34               	goto	l3225
  8282     0F55                     u4530:
  8283     0F55                     l3237:
  8284     0F55  01C0               	clrf	___flmul@aexp
  8285     0F56                     l3239:
  8286     0F56  1FBF               	btfss	___flmul@grs+3,7
  8287     0F57  2F59               	goto	u4541
  8288     0F58  2F5A               	goto	u4540
  8289     0F59                     u4541:
  8290     0F59  2F76               	goto	l3247
  8291     0F5A                     u4540:
  8292     0F5A                     l3241:
  8293     0F5A  30FF               	movlw	255
  8294     0F5B  053C               	andwf	___flmul@grs,w
  8295     0F5C  00B6               	movwf	??___flmul
  8296     0F5D  30FF               	movlw	255
  8297     0F5E  053D               	andwf	___flmul@grs+1,w
  8298     0F5F  00B7               	movwf	??___flmul+1
  8299     0F60  30FF               	movlw	255
  8300     0F61  053E               	andwf	___flmul@grs+2,w
  8301     0F62  00B8               	movwf	??___flmul+2
  8302     0F63  307F               	movlw	127
  8303     0F64  053F               	andwf	___flmul@grs+3,w
  8304     0F65  00B9               	movwf	??___flmul+3
  8305     0F66  0839               	movf	??___flmul+3,w
  8306     0F67  0438               	iorwf	??___flmul+2,w
  8307     0F68  0437               	iorwf	??___flmul+1,w
  8308     0F69  0436               	iorwf	??___flmul,w
  8309     0F6A  1903               	skipnz
  8310     0F6B  2F6D               	goto	u4551
  8311     0F6C  2F6E               	goto	u4550
  8312     0F6D                     u4551:
  8313     0F6D  2F71               	goto	l691
  8314     0F6E                     u4550:
  8315     0F6E                     l3243:
  8316     0F6E  3001               	movlw	1
  8317     0F6F  00C0               	movwf	___flmul@aexp
  8318     0F70  2F76               	goto	l3247
  8319     0F71                     l691:
  8320     0F71  1C42               	btfss	___flmul@prod,0
  8321     0F72  2F74               	goto	u4561
  8322     0F73  2F75               	goto	u4560
  8323     0F74                     u4561:
  8324     0F74  2F76               	goto	l3247
  8325     0F75                     u4560:
  8326     0F75  2F6E               	goto	l3243
  8327     0F76                     l3247:
  8328     0F76  0840               	movf	___flmul@aexp,w
  8329     0F77  1903               	btfsc	3,2
  8330     0F78  2F7A               	goto	u4571
  8331     0F79  2F7B               	goto	u4570
  8332     0F7A                     u4571:
  8333     0F7A  2FAC               	goto	l3257
  8334     0F7B                     u4570:
  8335     0F7B                     l3249:
  8336     0F7B  3001               	movlw	1
  8337     0F7C  07C2               	addwf	___flmul@prod,f
  8338     0F7D  3000               	movlw	0
  8339     0F7E  1803               	skipnc
  8340     0F7F  3001               	movlw	1
  8341     0F80  07C3               	addwf	___flmul@prod+1,f
  8342     0F81  3000               	movlw	0
  8343     0F82  1803               	skipnc
  8344     0F83  3001               	movlw	1
  8345     0F84  07C4               	addwf	___flmul@prod+2,f
  8346     0F85  3000               	movlw	0
  8347     0F86  1803               	skipnc
  8348     0F87  3001               	movlw	1
  8349     0F88  07C5               	addwf	___flmul@prod+3,f
  8350     0F89                     l3251:
  8351     0F89  1C45               	btfss	___flmul@prod+3,0
  8352     0F8A  2F8C               	goto	u4581
  8353     0F8B  2F8D               	goto	u4580
  8354     0F8C                     u4581:
  8355     0F8C  2FAC               	goto	l3257
  8356     0F8D                     u4580:
  8357     0F8D                     l3253:
  8358     0F8D  0842               	movf	___flmul@prod,w
  8359     0F8E  00B6               	movwf	??___flmul
  8360     0F8F  0843               	movf	___flmul@prod+1,w
  8361     0F90  00B7               	movwf	??___flmul+1
  8362     0F91  0844               	movf	___flmul@prod+2,w
  8363     0F92  00B8               	movwf	??___flmul+2
  8364     0F93  0845               	movf	___flmul@prod+3,w
  8365     0F94  00B9               	movwf	??___flmul+3
  8366     0F95  3001               	movlw	1
  8367     0F96  00BA               	movwf	??___flmul+4
  8368     0F97                     u4595:
  8369     0F97  0D39               	rlf	??___flmul+3,w
  8370     0F98  0CB9               	rrf	??___flmul+3,f
  8371     0F99  0CB8               	rrf	??___flmul+2,f
  8372     0F9A  0CB7               	rrf	??___flmul+1,f
  8373     0F9B  0CB6               	rrf	??___flmul,f
  8374     0F9C                     u4590:
  8375     0F9C  0BBA               	decfsz	??___flmul+4,f
  8376     0F9D  2F97               	goto	u4595
  8377     0F9E  0839               	movf	??___flmul+3,w
  8378     0F9F  00C5               	movwf	___flmul@prod+3
  8379     0FA0  0838               	movf	??___flmul+2,w
  8380     0FA1  00C4               	movwf	___flmul@prod+2
  8381     0FA2  0837               	movf	??___flmul+1,w
  8382     0FA3  00C3               	movwf	___flmul@prod+1
  8383     0FA4  0836               	movf	??___flmul,w
  8384     0FA5  00C2               	movwf	___flmul@prod
  8385     0FA6                     l3255:
  8386     0FA6  3001               	movlw	1
  8387     0FA7  07C6               	addwf	___flmul@temp,f
  8388     0FA8  1803               	skipnc
  8389     0FA9  0AC7               	incf	___flmul@temp+1,f
  8390     0FAA  3000               	movlw	0
  8391     0FAB  07C7               	addwf	___flmul@temp+1,f
  8392     0FAC                     l3257:
  8393     0FAC  0847               	movf	___flmul@temp+1,w
  8394     0FAD  3A80               	xorlw	128
  8395     0FAE  00FF               	movwf	btemp+1
  8396     0FAF  3080               	movlw	128
  8397     0FB0  027F               	subwf	btemp+1,w
  8398     0FB1  1D03               	skipz
  8399     0FB2  2FB5               	goto	u4605
  8400     0FB3  30FF               	movlw	255
  8401     0FB4  0246               	subwf	___flmul@temp,w
  8402     0FB5                     u4605:
  8403     0FB5  1C03               	skipc
  8404     0FB6  2FB8               	goto	u4601
  8405     0FB7  2FB9               	goto	u4600
  8406     0FB8                     u4601:
  8407     0FB8  2FC4               	goto	l3261
  8408     0FB9                     u4600:
  8409     0FB9                     l3259:
  8410     0FB9  307F               	movlw	127
  8411     0FBA  1283               	bcf	3,5	;RP0=0, select bank0
  8412     0FBB  1303               	bcf	3,6	;RP1=0, select bank0
  8413     0FBC  00C5               	movwf	___flmul@prod+3
  8414     0FBD  3080               	movlw	128
  8415     0FBE  00C4               	movwf	___flmul@prod+2
  8416     0FBF  3000               	movlw	0
  8417     0FC0  00C3               	movwf	___flmul@prod+1
  8418     0FC1  3000               	movlw	0
  8419     0FC2  00C2               	movwf	___flmul@prod
  8420     0FC3  2FF5               	goto	l697
  8421     0FC4                     l3261:
  8422     0FC4  1283               	bcf	3,5	;RP0=0, select bank0
  8423     0FC5  1303               	bcf	3,6	;RP1=0, select bank0
  8424     0FC6  0847               	movf	___flmul@temp+1,w
  8425     0FC7  3A80               	xorlw	128
  8426     0FC8  00FF               	movwf	btemp+1
  8427     0FC9  3080               	movlw	128
  8428     0FCA  027F               	subwf	btemp+1,w
  8429     0FCB  1D03               	skipz
  8430     0FCC  2FCF               	goto	u4615
  8431     0FCD  3001               	movlw	1
  8432     0FCE  0246               	subwf	___flmul@temp,w
  8433     0FCF                     u4615:
  8434     0FCF  1803               	skipnc
  8435     0FD0  2FD2               	goto	u4611
  8436     0FD1  2FD3               	goto	u4610
  8437     0FD2                     u4611:
  8438     0FD2  2FDF               	goto	l3267
  8439     0FD3                     u4610:
  8440     0FD3                     l3263:
  8441     0FD3  3000               	movlw	0
  8442     0FD4  1283               	bcf	3,5	;RP0=0, select bank0
  8443     0FD5  1303               	bcf	3,6	;RP1=0, select bank0
  8444     0FD6  00C5               	movwf	___flmul@prod+3
  8445     0FD7  3000               	movlw	0
  8446     0FD8  00C4               	movwf	___flmul@prod+2
  8447     0FD9  3000               	movlw	0
  8448     0FDA  00C3               	movwf	___flmul@prod+1
  8449     0FDB  3000               	movlw	0
  8450     0FDC  00C2               	movwf	___flmul@prod
  8451     0FDD                     l3265:
  8452     0FDD  01BB               	clrf	___flmul@sign
  8453     0FDE  2FF5               	goto	l697
  8454     0FDF                     l3267:
  8455     0FDF  1283               	bcf	3,5	;RP0=0, select bank0
  8456     0FE0  1303               	bcf	3,6	;RP1=0, select bank0
  8457     0FE1  0846               	movf	___flmul@temp,w
  8458     0FE2  00C1               	movwf	___flmul@bexp
  8459     0FE3  30FF               	movlw	255
  8460     0FE4  05C2               	andwf	___flmul@prod,f
  8461     0FE5  30FF               	movlw	255
  8462     0FE6  05C3               	andwf	___flmul@prod+1,f
  8463     0FE7  307F               	movlw	127
  8464     0FE8  05C4               	andwf	___flmul@prod+2,f
  8465     0FE9  3000               	movlw	0
  8466     0FEA  05C5               	andwf	___flmul@prod+3,f
  8467     0FEB                     l3269:
  8468     0FEB  1C41               	btfss	___flmul@bexp,0
  8469     0FEC  2FEE               	goto	u4621
  8470     0FED  2FEF               	goto	u4620
  8471     0FEE                     u4621:
  8472     0FEE  2FF0               	goto	l3273
  8473     0FEF                     u4620:
  8474     0FEF                     l3271:
  8475     0FEF  17C4               	bsf	___flmul@prod+2,7
  8476     0FF0                     l3273:
  8477     0FF0  0841               	movf	___flmul@bexp,w
  8478     0FF1  00B6               	movwf	??___flmul
  8479     0FF2  1003               	clrc
  8480     0FF3  0C36               	rrf	??___flmul,w
  8481     0FF4  00C5               	movwf	___flmul@prod+3
  8482     0FF5                     l697:
  8483     0FF5  083B               	movf	___flmul@sign,w
  8484     0FF6  04C5               	iorwf	___flmul@prod+3,f
  8485     0FF7                     l3275:
  8486     0FF7  0845               	movf	___flmul@prod+3,w
  8487     0FF8  00B1               	movwf	?___flmul+3
  8488     0FF9  0844               	movf	___flmul@prod+2,w
  8489     0FFA  00B0               	movwf	?___flmul+2
  8490     0FFB  0843               	movf	___flmul@prod+1,w
  8491     0FFC  00AF               	movwf	?___flmul+1
  8492     0FFD  0842               	movf	___flmul@prod,w
  8493     0FFE  00AE               	movwf	?___flmul
  8494     0FFF                     l685:
  8495     0FFF  0008               	return
  8496     1000                     __end_of___flmul:
  8497                           
  8498                           	psect	text28
  8499     1EEC                     __ptext28:	
  8500 ;; *************** function __Umul8_16 *****************
  8501 ;; Defined at:
  8502 ;;		line 4 in file "C:\Program Files\Microchip\xc8\v3.00\pic\sources\c99\common\Umul8_16.c"
  8503 ;; Parameters:    Size  Location     Type
  8504 ;;  multiplier      1    wreg     unsigned char 
  8505 ;;  multiplicand    1    0[BANK0 ] unsigned char 
  8506 ;; Auto vars:     Size  Location     Type
  8507 ;;  multiplier      1    8[BANK0 ] unsigned char 
  8508 ;;  word_mpld       2    6[BANK0 ] unsigned short 
  8509 ;;  product         2    4[BANK0 ] unsigned short 
  8510 ;; Return value:  Size  Location     Type
  8511 ;;                  2    0[BANK0 ] unsigned int 
  8512 ;; Registers used:
  8513 ;;		wreg, status,2, status,0
  8514 ;; Tracked objects:
  8515 ;;		On entry : 0/0
  8516 ;;		On exit  : 0/0
  8517 ;;		Unchanged: 0/0
  8518 ;; Data sizes:     COMMON   BANK0   BANK1   BANK3   BANK2
  8519 ;;      Params:         0       2       0       0       0
  8520 ;;      Locals:         0       5       0       0       0
  8521 ;;      Temps:          0       2       0       0       0
  8522 ;;      Totals:         0       9       0       0       0
  8523 ;;Total ram usage:        9 bytes
  8524 ;; Hardware stack levels used: 1
  8525 ;; Hardware stack levels required when called: 1
  8526 ;; This function calls:
  8527 ;;		Nothing
  8528 ;; This function is called by:
  8529 ;;		___flmul
  8530 ;; This function uses a non-reentrant model
  8531 ;;
  8532                           
  8533     1EEC                     __Umul8_16:	
  8534                           ;psect for function __Umul8_16
  8535                           
  8536                           
  8537                           ;incstack = 0
  8538                           ; Regs used in __Umul8_16: [wreg+status,2+status,0]
  8539                           ;__Umul8_16@multiplier stored from wreg
  8540     1EEC  1283               	bcf	3,5	;RP0=0, select bank0
  8541     1EED  1303               	bcf	3,6	;RP1=0, select bank0
  8542     1EEE  00A8               	movwf	__Umul8_16@multiplier
  8543     1EEF                     l2623:
  8544     1EEF  01A4               	clrf	__Umul8_16@product
  8545     1EF0  01A5               	clrf	__Umul8_16@product+1
  8546     1EF1                     l2625:
  8547     1EF1  0820               	movf	__Umul8_16@multiplicand,w
  8548     1EF2  00A2               	movwf	??__Umul8_16
  8549     1EF3  01A3               	clrf	??__Umul8_16+1
  8550     1EF4  0822               	movf	??__Umul8_16,w
  8551     1EF5  00A6               	movwf	__Umul8_16@word_mpld
  8552     1EF6  0823               	movf	??__Umul8_16+1,w
  8553     1EF7  00A7               	movwf	__Umul8_16@word_mpld+1
  8554     1EF8                     l2627:
  8555     1EF8  1C28               	btfss	__Umul8_16@multiplier,0
  8556     1EF9  2EFB               	goto	u3291
  8557     1EFA  2EFC               	goto	u3290
  8558     1EFB                     u3291:
  8559     1EFB  2F02               	goto	l704
  8560     1EFC                     u3290:
  8561     1EFC                     l2629:
  8562     1EFC  0826               	movf	__Umul8_16@word_mpld,w
  8563     1EFD  07A4               	addwf	__Umul8_16@product,f
  8564     1EFE  1803               	skipnc
  8565     1EFF  0AA5               	incf	__Umul8_16@product+1,f
  8566     1F00  0827               	movf	__Umul8_16@word_mpld+1,w
  8567     1F01  07A5               	addwf	__Umul8_16@product+1,f
  8568     1F02                     l704:
  8569     1F02  3001               	movlw	1
  8570     1F03                     u3305:
  8571     1F03  1003               	clrc
  8572     1F04  0DA6               	rlf	__Umul8_16@word_mpld,f
  8573     1F05  0DA7               	rlf	__Umul8_16@word_mpld+1,f
  8574     1F06  3EFF               	addlw	-1
  8575     1F07  1D03               	skipz
  8576     1F08  2F03               	goto	u3305
  8577     1F09  1003               	clrc
  8578     1F0A  0CA8               	rrf	__Umul8_16@multiplier,f
  8579     1F0B                     l2631:
  8580     1F0B  0828               	movf	__Umul8_16@multiplier,w
  8581     1F0C  1D03               	btfss	3,2
  8582     1F0D  2F0F               	goto	u3311
  8583     1F0E  2F10               	goto	u3310
  8584     1F0F                     u3311:
  8585     1F0F  2EF8               	goto	l2627
  8586     1F10                     u3310:
  8587     1F10                     l2633:
  8588     1F10  0825               	movf	__Umul8_16@product+1,w
  8589     1F11  00A1               	movwf	?__Umul8_16+1
  8590     1F12  0824               	movf	__Umul8_16@product,w
  8591     1F13  00A0               	movwf	?__Umul8_16
  8592     1F14                     l706:
  8593     1F14  0008               	return
  8594     1F15                     __end_of__Umul8_16:
  8595                           
  8596                           	psect	text29
  8597     05D8                     __ptext29:	
  8598 ;; *************** function ___fldiv *****************
  8599 ;; Defined at:
  8600 ;;		line 8 in file "C:\Program Files\Microchip\xc8\v3.00\pic\sources\c99\common\sprcdiv.c"
  8601 ;; Parameters:    Size  Location     Type
  8602 ;;  a               4   40[BANK0 ] unsigned int 
  8603 ;;  b               4   44[BANK0 ] unsigned int 
  8604 ;; Auto vars:     Size  Location     Type
  8605 ;;  grs             4   60[BANK0 ] unsigned long 
  8606 ;;  rem             4   53[BANK0 ] unsigned long 
  8607 ;;  new_exp         2   58[BANK0 ] short 
  8608 ;;  aexp            1   65[BANK0 ] unsigned char 
  8609 ;;  bexp            1   64[BANK0 ] unsigned char 
  8610 ;;  sign            1   57[BANK0 ] unsigned char 
  8611 ;; Return value:  Size  Location     Type
  8612 ;;                  4   40[BANK0 ] unsigned char 
  8613 ;; Registers used:
  8614 ;;		wreg, status,2, status,0, btemp+1
  8615 ;; Tracked objects:
  8616 ;;		On entry : 0/0
  8617 ;;		On exit  : 0/0
  8618 ;;		Unchanged: 0/0
  8619 ;; Data sizes:     COMMON   BANK0   BANK1   BANK3   BANK2
  8620 ;;      Params:         0       8       0       0       0
  8621 ;;      Locals:         0      13       0       0       0
  8622 ;;      Temps:          0       5       0       0       0
  8623 ;;      Totals:         0      26       0       0       0
  8624 ;;Total ram usage:       26 bytes
  8625 ;; Hardware stack levels used: 1
  8626 ;; Hardware stack levels required when called: 1
  8627 ;; This function calls:
  8628 ;;		Nothing
  8629 ;; This function is called by:
  8630 ;;		_USART_init
  8631 ;; This function uses a non-reentrant model
  8632 ;;
  8633                           
  8634     05D8                     ___fldiv:	
  8635                           ;psect for function ___fldiv
  8636                           
  8637     05D8                     l2993:	
  8638                           ;incstack = 0
  8639                           ; Regs used in ___fldiv: [wreg+status,2+status,0+btemp+1]
  8640                           
  8641     05D8  1283               	bcf	3,5	;RP0=0, select bank0
  8642     05D9  1303               	bcf	3,6	;RP1=0, select bank0
  8643     05DA  084F               	movf	___fldiv@b+3,w
  8644     05DB  00D9               	movwf	___fldiv@sign
  8645     05DC                     l2995:
  8646     05DC  3080               	movlw	128
  8647     05DD  05D9               	andwf	___fldiv@sign,f
  8648     05DE                     l2997:
  8649     05DE  084F               	movf	___fldiv@b+3,w
  8650     05DF  00D0               	movwf	??___fldiv
  8651     05E0  0750               	addwf	??___fldiv,w
  8652     05E1  00E0               	movwf	___fldiv@bexp
  8653     05E2                     l2999:
  8654     05E2  1FCE               	btfss	___fldiv@b+2,7
  8655     05E3  2DE5               	goto	u3971
  8656     05E4  2DE6               	goto	u3970
  8657     05E5                     u3971:
  8658     05E5  2DE7               	goto	l3003
  8659     05E6                     u3970:
  8660     05E6                     l3001:
  8661     05E6  1460               	bsf	___fldiv@bexp,0
  8662     05E7                     l3003:
  8663     05E7  0860               	movf	___fldiv@bexp,w
  8664     05E8  1903               	btfsc	3,2
  8665     05E9  2DEB               	goto	u3981
  8666     05EA  2DEC               	goto	u3980
  8667     05EB                     u3981:
  8668     05EB  2DFC               	goto	l3013
  8669     05EC                     u3980:
  8670     05EC                     l3005:
  8671     05EC  0A60               	incf	___fldiv@bexp,w
  8672     05ED  1D03               	btfss	3,2
  8673     05EE  2DF0               	goto	u3991
  8674     05EF  2DF1               	goto	u3990
  8675     05F0                     u3991:
  8676     05F0  2DF9               	goto	l3009
  8677     05F1                     u3990:
  8678     05F1                     l3007:
  8679     05F1  3000               	movlw	0
  8680     05F2  00CF               	movwf	___fldiv@b+3
  8681     05F3  3000               	movlw	0
  8682     05F4  00CE               	movwf	___fldiv@b+2
  8683     05F5  3000               	movlw	0
  8684     05F6  00CD               	movwf	___fldiv@b+1
  8685     05F7  3000               	movlw	0
  8686     05F8  00CC               	movwf	___fldiv@b
  8687     05F9                     l3009:
  8688     05F9  17CE               	bsf	___fldiv@b+2,7
  8689     05FA                     l3011:
  8690     05FA  01CF               	clrf	___fldiv@b+3
  8691     05FB  2E04               	goto	l3015
  8692     05FC                     l3013:
  8693     05FC  3000               	movlw	0
  8694     05FD  00CF               	movwf	___fldiv@b+3
  8695     05FE  3000               	movlw	0
  8696     05FF  00CE               	movwf	___fldiv@b+2
  8697     0600  3000               	movlw	0
  8698     0601  00CD               	movwf	___fldiv@b+1
  8699     0602  3000               	movlw	0
  8700     0603  00CC               	movwf	___fldiv@b
  8701     0604                     l3015:
  8702     0604  084B               	movf	___fldiv@a+3,w
  8703     0605  3980               	andlw	128
  8704     0606  06D9               	xorwf	___fldiv@sign,f
  8705     0607                     l3017:
  8706     0607  084B               	movf	___fldiv@a+3,w
  8707     0608  00D0               	movwf	??___fldiv
  8708     0609  0750               	addwf	??___fldiv,w
  8709     060A  00E1               	movwf	___fldiv@aexp
  8710     060B                     l3019:
  8711     060B  1FCA               	btfss	___fldiv@a+2,7
  8712     060C  2E0E               	goto	u4001
  8713     060D  2E0F               	goto	u4000
  8714     060E                     u4001:
  8715     060E  2E10               	goto	l3023
  8716     060F                     u4000:
  8717     060F                     l3021:
  8718     060F  1461               	bsf	___fldiv@aexp,0
  8719     0610                     l3023:
  8720     0610  0861               	movf	___fldiv@aexp,w
  8721     0611  1903               	btfsc	3,2
  8722     0612  2E14               	goto	u4011
  8723     0613  2E15               	goto	u4010
  8724     0614                     u4011:
  8725     0614  2E25               	goto	l3033
  8726     0615                     u4010:
  8727     0615                     l3025:
  8728     0615  0A61               	incf	___fldiv@aexp,w
  8729     0616  1D03               	btfss	3,2
  8730     0617  2E19               	goto	u4021
  8731     0618  2E1A               	goto	u4020
  8732     0619                     u4021:
  8733     0619  2E22               	goto	l3029
  8734     061A                     u4020:
  8735     061A                     l3027:
  8736     061A  3000               	movlw	0
  8737     061B  00CB               	movwf	___fldiv@a+3
  8738     061C  3000               	movlw	0
  8739     061D  00CA               	movwf	___fldiv@a+2
  8740     061E  3000               	movlw	0
  8741     061F  00C9               	movwf	___fldiv@a+1
  8742     0620  3000               	movlw	0
  8743     0621  00C8               	movwf	___fldiv@a
  8744     0622                     l3029:
  8745     0622  17CA               	bsf	___fldiv@a+2,7
  8746     0623                     l3031:
  8747     0623  01CB               	clrf	___fldiv@a+3
  8748     0624  2E2D               	goto	l645
  8749     0625                     l3033:
  8750     0625  3000               	movlw	0
  8751     0626  00CB               	movwf	___fldiv@a+3
  8752     0627  3000               	movlw	0
  8753     0628  00CA               	movwf	___fldiv@a+2
  8754     0629  3000               	movlw	0
  8755     062A  00C9               	movwf	___fldiv@a+1
  8756     062B  3000               	movlw	0
  8757     062C  00C8               	movwf	___fldiv@a
  8758     062D                     l645:
  8759     062D  084B               	movf	___fldiv@a+3,w
  8760     062E  044A               	iorwf	___fldiv@a+2,w
  8761     062F  0449               	iorwf	___fldiv@a+1,w
  8762     0630  0448               	iorwf	___fldiv@a,w
  8763     0631  1D03               	skipz
  8764     0632  2E34               	goto	u4031
  8765     0633  2E35               	goto	u4030
  8766     0634                     u4031:
  8767     0634  2E4C               	goto	l3043
  8768     0635                     u4030:
  8769     0635                     l3035:
  8770     0635  3000               	movlw	0
  8771     0636  00CF               	movwf	___fldiv@b+3
  8772     0637  3000               	movlw	0
  8773     0638  00CE               	movwf	___fldiv@b+2
  8774     0639  3000               	movlw	0
  8775     063A  00CD               	movwf	___fldiv@b+1
  8776     063B  3000               	movlw	0
  8777     063C  00CC               	movwf	___fldiv@b
  8778     063D  3080               	movlw	128
  8779     063E  04CE               	iorwf	___fldiv@b+2,f
  8780     063F  307F               	movlw	127
  8781     0640  04CF               	iorwf	___fldiv@b+3,f
  8782     0641                     l3037:
  8783     0641  0859               	movf	___fldiv@sign,w
  8784     0642  04CF               	iorwf	___fldiv@b+3,f
  8785     0643                     l3039:
  8786     0643  084F               	movf	___fldiv@b+3,w
  8787     0644  00CB               	movwf	?___fldiv+3
  8788     0645  084E               	movf	___fldiv@b+2,w
  8789     0646  00CA               	movwf	?___fldiv+2
  8790     0647  084D               	movf	___fldiv@b+1,w
  8791     0648  00C9               	movwf	?___fldiv+1
  8792     0649  084C               	movf	___fldiv@b,w
  8793     064A  00C8               	movwf	?___fldiv
  8794     064B  2FA1               	goto	l647
  8795     064C                     l3043:
  8796     064C  0860               	movf	___fldiv@bexp,w
  8797     064D  1D03               	btfss	3,2
  8798     064E  2E50               	goto	u4041
  8799     064F  2E51               	goto	u4040
  8800     0650                     u4041:
  8801     0650  2E5A               	goto	l3049
  8802     0651                     u4040:
  8803     0651                     l3045:
  8804     0651  3000               	movlw	0
  8805     0652  00CB               	movwf	?___fldiv+3
  8806     0653  3000               	movlw	0
  8807     0654  00CA               	movwf	?___fldiv+2
  8808     0655  3000               	movlw	0
  8809     0656  00C9               	movwf	?___fldiv+1
  8810     0657  3000               	movlw	0
  8811     0658  00C8               	movwf	?___fldiv
  8812     0659  2FA1               	goto	l647
  8813     065A                     l3049:
  8814     065A  0860               	movf	___fldiv@bexp,w
  8815     065B  00D0               	movwf	??___fldiv
  8816     065C  01D1               	clrf	??___fldiv+1
  8817     065D  0851               	movf	??___fldiv+1,w
  8818     065E  00D3               	movwf	??___fldiv+3
  8819     065F  0861               	movf	___fldiv@aexp,w
  8820     0660  0250               	subwf	??___fldiv,w
  8821     0661  00D2               	movwf	??___fldiv+2
  8822     0662  1C03               	skipc
  8823     0663  03D3               	decf	??___fldiv+3,f
  8824     0664  0852               	movf	??___fldiv+2,w
  8825     0665  3E7F               	addlw	127
  8826     0666  00DA               	movwf	___fldiv@new_exp
  8827     0667  0853               	movf	??___fldiv+3,w
  8828     0668  1803               	skipnc
  8829     0669  3E01               	addlw	1
  8830     066A  3E00               	addlw	0
  8831     066B  00DB               	movwf	___fldiv@new_exp+1
  8832     066C                     l3051:
  8833     066C  084F               	movf	___fldiv@b+3,w
  8834     066D  00D8               	movwf	___fldiv@rem+3
  8835     066E  084E               	movf	___fldiv@b+2,w
  8836     066F  00D7               	movwf	___fldiv@rem+2
  8837     0670  084D               	movf	___fldiv@b+1,w
  8838     0671  00D6               	movwf	___fldiv@rem+1
  8839     0672  084C               	movf	___fldiv@b,w
  8840     0673  00D5               	movwf	___fldiv@rem
  8841     0674                     l3053:
  8842     0674  3000               	movlw	0
  8843     0675  00CF               	movwf	___fldiv@b+3
  8844     0676  3000               	movlw	0
  8845     0677  00CE               	movwf	___fldiv@b+2
  8846     0678  3000               	movlw	0
  8847     0679  00CD               	movwf	___fldiv@b+1
  8848     067A  3000               	movlw	0
  8849     067B  00CC               	movwf	___fldiv@b
  8850     067C                     l3055:
  8851     067C  3000               	movlw	0
  8852     067D  00DF               	movwf	___fldiv@grs+3
  8853     067E  3000               	movlw	0
  8854     067F  00DE               	movwf	___fldiv@grs+2
  8855     0680  3000               	movlw	0
  8856     0681  00DD               	movwf	___fldiv@grs+1
  8857     0682  3000               	movlw	0
  8858     0683  00DC               	movwf	___fldiv@grs
  8859     0684                     l3057:
  8860     0684  01E1               	clrf	___fldiv@aexp
  8861     0685  2ECE               	goto	l3077
  8862     0686                     l3059:
  8863     0686  0861               	movf	___fldiv@aexp,w
  8864     0687  1903               	btfsc	3,2
  8865     0688  2E8A               	goto	u4051
  8866     0689  2E8B               	goto	u4050
  8867     068A                     u4051:
  8868     068A  2EAB               	goto	l3069
  8869     068B                     u4050:
  8870     068B                     l3061:
  8871     068B  3001               	movlw	1
  8872     068C  00D0               	movwf	??___fldiv
  8873     068D                     u4065:
  8874     068D  1003               	clrc
  8875     068E  0DD5               	rlf	___fldiv@rem,f
  8876     068F  0DD6               	rlf	___fldiv@rem+1,f
  8877     0690  0DD7               	rlf	___fldiv@rem+2,f
  8878     0691  0DD8               	rlf	___fldiv@rem+3,f
  8879     0692  0BD0               	decfsz	??___fldiv,f
  8880     0693  2E8D               	goto	u4065
  8881     0694  3001               	movlw	1
  8882     0695  00D0               	movwf	??___fldiv
  8883     0696                     u4075:
  8884     0696  1003               	clrc
  8885     0697  0DCC               	rlf	___fldiv@b,f
  8886     0698  0DCD               	rlf	___fldiv@b+1,f
  8887     0699  0DCE               	rlf	___fldiv@b+2,f
  8888     069A  0DCF               	rlf	___fldiv@b+3,f
  8889     069B  0BD0               	decfsz	??___fldiv,f
  8890     069C  2E96               	goto	u4075
  8891     069D                     l3063:
  8892     069D  1FDF               	btfss	___fldiv@grs+3,7
  8893     069E  2EA0               	goto	u4081
  8894     069F  2EA1               	goto	u4080
  8895     06A0                     u4081:
  8896     06A0  2EA2               	goto	l3067
  8897     06A1                     u4080:
  8898     06A1                     l3065:
  8899     06A1  144C               	bsf	___fldiv@b,0
  8900     06A2                     l3067:
  8901     06A2  3001               	movlw	1
  8902     06A3  00D0               	movwf	??___fldiv
  8903     06A4                     u4095:
  8904     06A4  1003               	clrc
  8905     06A5  0DDC               	rlf	___fldiv@grs,f
  8906     06A6  0DDD               	rlf	___fldiv@grs+1,f
  8907     06A7  0DDE               	rlf	___fldiv@grs+2,f
  8908     06A8  0DDF               	rlf	___fldiv@grs+3,f
  8909     06A9  0BD0               	decfsz	??___fldiv,f
  8910     06AA  2EA4               	goto	u4095
  8911     06AB                     l3069:
  8912     06AB  084B               	movf	___fldiv@a+3,w
  8913     06AC  0258               	subwf	___fldiv@rem+3,w
  8914     06AD  1D03               	skipz
  8915     06AE  2EB9               	goto	u4105
  8916     06AF  084A               	movf	___fldiv@a+2,w
  8917     06B0  0257               	subwf	___fldiv@rem+2,w
  8918     06B1  1D03               	skipz
  8919     06B2  2EB9               	goto	u4105
  8920     06B3  0849               	movf	___fldiv@a+1,w
  8921     06B4  0256               	subwf	___fldiv@rem+1,w
  8922     06B5  1D03               	skipz
  8923     06B6  2EB9               	goto	u4105
  8924     06B7  0848               	movf	___fldiv@a,w
  8925     06B8  0255               	subwf	___fldiv@rem,w
  8926     06B9                     u4105:
  8927     06B9  1C03               	skipc
  8928     06BA  2EBC               	goto	u4101
  8929     06BB  2EBD               	goto	u4100
  8930     06BC                     u4101:
  8931     06BC  2ECC               	goto	l3075
  8932     06BD                     u4100:
  8933     06BD                     l3071:
  8934     06BD  175F               	bsf	___fldiv@grs+3,6
  8935     06BE                     l3073:
  8936     06BE  0848               	movf	___fldiv@a,w
  8937     06BF  02D5               	subwf	___fldiv@rem,f
  8938     06C0  0849               	movf	___fldiv@a+1,w
  8939     06C1  1C03               	skipc
  8940     06C2  0F49               	incfsz	___fldiv@a+1,w
  8941     06C3  02D6               	subwf	___fldiv@rem+1,f
  8942     06C4  084A               	movf	___fldiv@a+2,w
  8943     06C5  1C03               	skipc
  8944     06C6  0F4A               	incfsz	___fldiv@a+2,w
  8945     06C7  02D7               	subwf	___fldiv@rem+2,f
  8946     06C8  084B               	movf	___fldiv@a+3,w
  8947     06C9  1C03               	skipc
  8948     06CA  0F4B               	incfsz	___fldiv@a+3,w
  8949     06CB  02D8               	subwf	___fldiv@rem+3,f
  8950     06CC                     l3075:
  8951     06CC  3001               	movlw	1
  8952     06CD  07E1               	addwf	___fldiv@aexp,f
  8953     06CE                     l3077:
  8954     06CE  301A               	movlw	26
  8955     06CF  0261               	subwf	___fldiv@aexp,w
  8956     06D0  1C03               	skipc
  8957     06D1  2ED3               	goto	u4111
  8958     06D2  2ED4               	goto	u4110
  8959     06D3                     u4111:
  8960     06D3  2E86               	goto	l3059
  8961     06D4                     u4110:
  8962     06D4                     l3079:
  8963     06D4  0858               	movf	___fldiv@rem+3,w
  8964     06D5  0457               	iorwf	___fldiv@rem+2,w
  8965     06D6  0456               	iorwf	___fldiv@rem+1,w
  8966     06D7  0455               	iorwf	___fldiv@rem,w
  8967     06D8  1903               	skipnz
  8968     06D9  2EDB               	goto	u4121
  8969     06DA  2EDC               	goto	u4120
  8970     06DB                     u4121:
  8971     06DB  2EFB               	goto	l3093
  8972     06DC                     u4120:
  8973     06DC                     l3081:
  8974     06DC  145C               	bsf	___fldiv@grs,0
  8975     06DD  2EFB               	goto	l3093
  8976     06DE                     l3083:
  8977     06DE  3001               	movlw	1
  8978     06DF  00D0               	movwf	??___fldiv
  8979     06E0                     u4135:
  8980     06E0  1003               	clrc
  8981     06E1  0DCC               	rlf	___fldiv@b,f
  8982     06E2  0DCD               	rlf	___fldiv@b+1,f
  8983     06E3  0DCE               	rlf	___fldiv@b+2,f
  8984     06E4  0DCF               	rlf	___fldiv@b+3,f
  8985     06E5  0BD0               	decfsz	??___fldiv,f
  8986     06E6  2EE0               	goto	u4135
  8987     06E7                     l3085:
  8988     06E7  1FDF               	btfss	___fldiv@grs+3,7
  8989     06E8  2EEA               	goto	u4141
  8990     06E9  2EEB               	goto	u4140
  8991     06EA                     u4141:
  8992     06EA  2EEC               	goto	l3089
  8993     06EB                     u4140:
  8994     06EB                     l3087:
  8995     06EB  144C               	bsf	___fldiv@b,0
  8996     06EC                     l3089:
  8997     06EC  3001               	movlw	1
  8998     06ED  00D0               	movwf	??___fldiv
  8999     06EE                     u4155:
  9000     06EE  1003               	clrc
  9001     06EF  0DDC               	rlf	___fldiv@grs,f
  9002     06F0  0DDD               	rlf	___fldiv@grs+1,f
  9003     06F1  0DDE               	rlf	___fldiv@grs+2,f
  9004     06F2  0DDF               	rlf	___fldiv@grs+3,f
  9005     06F3  0BD0               	decfsz	??___fldiv,f
  9006     06F4  2EEE               	goto	u4155
  9007     06F5                     l3091:
  9008     06F5  30FF               	movlw	255
  9009     06F6  07DA               	addwf	___fldiv@new_exp,f
  9010     06F7  1803               	skipnc
  9011     06F8  0ADB               	incf	___fldiv@new_exp+1,f
  9012     06F9  30FF               	movlw	255
  9013     06FA  07DB               	addwf	___fldiv@new_exp+1,f
  9014     06FB                     l3093:
  9015     06FB  1FCE               	btfss	___fldiv@b+2,7
  9016     06FC  2EFE               	goto	u4161
  9017     06FD  2EFF               	goto	u4160
  9018     06FE                     u4161:
  9019     06FE  2EDE               	goto	l3083
  9020     06FF                     u4160:
  9021     06FF                     l3095:
  9022     06FF  01E1               	clrf	___fldiv@aexp
  9023     0700                     l3097:
  9024     0700  1FDF               	btfss	___fldiv@grs+3,7
  9025     0701  2F03               	goto	u4171
  9026     0702  2F04               	goto	u4170
  9027     0703                     u4171:
  9028     0703  2F20               	goto	l3105
  9029     0704                     u4170:
  9030     0704                     l3099:
  9031     0704  30FF               	movlw	255
  9032     0705  055C               	andwf	___fldiv@grs,w
  9033     0706  00D0               	movwf	??___fldiv
  9034     0707  30FF               	movlw	255
  9035     0708  055D               	andwf	___fldiv@grs+1,w
  9036     0709  00D1               	movwf	??___fldiv+1
  9037     070A  30FF               	movlw	255
  9038     070B  055E               	andwf	___fldiv@grs+2,w
  9039     070C  00D2               	movwf	??___fldiv+2
  9040     070D  307F               	movlw	127
  9041     070E  055F               	andwf	___fldiv@grs+3,w
  9042     070F  00D3               	movwf	??___fldiv+3
  9043     0710  0853               	movf	??___fldiv+3,w
  9044     0711  0452               	iorwf	??___fldiv+2,w
  9045     0712  0451               	iorwf	??___fldiv+1,w
  9046     0713  0450               	iorwf	??___fldiv,w
  9047     0714  1903               	skipnz
  9048     0715  2F17               	goto	u4181
  9049     0716  2F18               	goto	u4180
  9050     0717                     u4181:
  9051     0717  2F1B               	goto	l661
  9052     0718                     u4180:
  9053     0718                     l3101:
  9054     0718  3001               	movlw	1
  9055     0719  00E1               	movwf	___fldiv@aexp
  9056     071A  2F20               	goto	l3105
  9057     071B                     l661:
  9058     071B  1C4C               	btfss	___fldiv@b,0
  9059     071C  2F1E               	goto	u4191
  9060     071D  2F1F               	goto	u4190
  9061     071E                     u4191:
  9062     071E  2F20               	goto	l3105
  9063     071F                     u4190:
  9064     071F  2F18               	goto	l3101
  9065     0720                     l3105:
  9066     0720  0861               	movf	___fldiv@aexp,w
  9067     0721  1903               	btfsc	3,2
  9068     0722  2F24               	goto	u4201
  9069     0723  2F25               	goto	u4200
  9070     0724                     u4201:
  9071     0724  2F56               	goto	l3115
  9072     0725                     u4200:
  9073     0725                     l3107:
  9074     0725  3001               	movlw	1
  9075     0726  07CC               	addwf	___fldiv@b,f
  9076     0727  3000               	movlw	0
  9077     0728  1803               	skipnc
  9078     0729  3001               	movlw	1
  9079     072A  07CD               	addwf	___fldiv@b+1,f
  9080     072B  3000               	movlw	0
  9081     072C  1803               	skipnc
  9082     072D  3001               	movlw	1
  9083     072E  07CE               	addwf	___fldiv@b+2,f
  9084     072F  3000               	movlw	0
  9085     0730  1803               	skipnc
  9086     0731  3001               	movlw	1
  9087     0732  07CF               	addwf	___fldiv@b+3,f
  9088     0733                     l3109:
  9089     0733  1C4F               	btfss	___fldiv@b+3,0
  9090     0734  2F36               	goto	u4211
  9091     0735  2F37               	goto	u4210
  9092     0736                     u4211:
  9093     0736  2F56               	goto	l3115
  9094     0737                     u4210:
  9095     0737                     l3111:
  9096     0737  084C               	movf	___fldiv@b,w
  9097     0738  00D0               	movwf	??___fldiv
  9098     0739  084D               	movf	___fldiv@b+1,w
  9099     073A  00D1               	movwf	??___fldiv+1
  9100     073B  084E               	movf	___fldiv@b+2,w
  9101     073C  00D2               	movwf	??___fldiv+2
  9102     073D  084F               	movf	___fldiv@b+3,w
  9103     073E  00D3               	movwf	??___fldiv+3
  9104     073F  3001               	movlw	1
  9105     0740  00D4               	movwf	??___fldiv+4
  9106     0741                     u4225:
  9107     0741  0D53               	rlf	??___fldiv+3,w
  9108     0742  0CD3               	rrf	??___fldiv+3,f
  9109     0743  0CD2               	rrf	??___fldiv+2,f
  9110     0744  0CD1               	rrf	??___fldiv+1,f
  9111     0745  0CD0               	rrf	??___fldiv,f
  9112     0746                     u4220:
  9113     0746  0BD4               	decfsz	??___fldiv+4,f
  9114     0747  2F41               	goto	u4225
  9115     0748  0853               	movf	??___fldiv+3,w
  9116     0749  00CF               	movwf	___fldiv@b+3
  9117     074A  0852               	movf	??___fldiv+2,w
  9118     074B  00CE               	movwf	___fldiv@b+2
  9119     074C  0851               	movf	??___fldiv+1,w
  9120     074D  00CD               	movwf	___fldiv@b+1
  9121     074E  0850               	movf	??___fldiv,w
  9122     074F  00CC               	movwf	___fldiv@b
  9123     0750                     l3113:
  9124     0750  3001               	movlw	1
  9125     0751  07DA               	addwf	___fldiv@new_exp,f
  9126     0752  1803               	skipnc
  9127     0753  0ADB               	incf	___fldiv@new_exp+1,f
  9128     0754  3000               	movlw	0
  9129     0755  07DB               	addwf	___fldiv@new_exp+1,f
  9130     0756                     l3115:
  9131     0756  085B               	movf	___fldiv@new_exp+1,w
  9132     0757  3A80               	xorlw	128
  9133     0758  00FF               	movwf	btemp+1
  9134     0759  3080               	movlw	128
  9135     075A  027F               	subwf	btemp+1,w
  9136     075B  1D03               	skipz
  9137     075C  2F5F               	goto	u4235
  9138     075D  30FF               	movlw	255
  9139     075E  025A               	subwf	___fldiv@new_exp,w
  9140     075F                     u4235:
  9141     075F  1C03               	skipc
  9142     0760  2F62               	goto	u4231
  9143     0761  2F63               	goto	u4230
  9144     0762                     u4231:
  9145     0762  2F71               	goto	l3119
  9146     0763                     u4230:
  9147     0763                     l3117:
  9148     0763  30FF               	movlw	255
  9149     0764  1283               	bcf	3,5	;RP0=0, select bank0
  9150     0765  1303               	bcf	3,6	;RP1=0, select bank0
  9151     0766  00DA               	movwf	___fldiv@new_exp
  9152     0767  3000               	movlw	0
  9153     0768  00DB               	movwf	___fldiv@new_exp+1
  9154     0769  3000               	movlw	0
  9155     076A  00CF               	movwf	___fldiv@b+3
  9156     076B  3000               	movlw	0
  9157     076C  00CE               	movwf	___fldiv@b+2
  9158     076D  3000               	movlw	0
  9159     076E  00CD               	movwf	___fldiv@b+1
  9160     076F  3000               	movlw	0
  9161     0770  00CC               	movwf	___fldiv@b
  9162     0771                     l3119:
  9163     0771  1283               	bcf	3,5	;RP0=0, select bank0
  9164     0772  1303               	bcf	3,6	;RP1=0, select bank0
  9165     0773  085B               	movf	___fldiv@new_exp+1,w
  9166     0774  3A80               	xorlw	128
  9167     0775  00FF               	movwf	btemp+1
  9168     0776  3080               	movlw	128
  9169     0777  027F               	subwf	btemp+1,w
  9170     0778  1D03               	skipz
  9171     0779  2F7C               	goto	u4245
  9172     077A  3001               	movlw	1
  9173     077B  025A               	subwf	___fldiv@new_exp,w
  9174     077C                     u4245:
  9175     077C  1803               	skipnc
  9176     077D  2F7F               	goto	u4241
  9177     077E  2F80               	goto	u4240
  9178     077F                     u4241:
  9179     077F  2F8D               	goto	l667
  9180     0780                     u4240:
  9181     0780                     l3121:
  9182     0780  1283               	bcf	3,5	;RP0=0, select bank0
  9183     0781  1303               	bcf	3,6	;RP1=0, select bank0
  9184     0782  01DA               	clrf	___fldiv@new_exp
  9185     0783  01DB               	clrf	___fldiv@new_exp+1
  9186     0784                     l3123:
  9187     0784  3000               	movlw	0
  9188     0785  00CF               	movwf	___fldiv@b+3
  9189     0786  3000               	movlw	0
  9190     0787  00CE               	movwf	___fldiv@b+2
  9191     0788  3000               	movlw	0
  9192     0789  00CD               	movwf	___fldiv@b+1
  9193     078A  3000               	movlw	0
  9194     078B  00CC               	movwf	___fldiv@b
  9195     078C                     l3125:
  9196     078C  01D9               	clrf	___fldiv@sign
  9197     078D                     l667:
  9198     078D  1283               	bcf	3,5	;RP0=0, select bank0
  9199     078E  1303               	bcf	3,6	;RP1=0, select bank0
  9200     078F  085A               	movf	___fldiv@new_exp,w
  9201     0790  00E0               	movwf	___fldiv@bexp
  9202     0791                     l3127:
  9203     0791  1C60               	btfss	___fldiv@bexp,0
  9204     0792  2F94               	goto	u4251
  9205     0793  2F95               	goto	u4250
  9206     0794                     u4251:
  9207     0794  2F97               	goto	l3131
  9208     0795                     u4250:
  9209     0795                     l3129:
  9210     0795  17CE               	bsf	___fldiv@b+2,7
  9211     0796  2F99               	goto	l669
  9212     0797                     l3131:
  9213     0797  307F               	movlw	127
  9214     0798  05CE               	andwf	___fldiv@b+2,f
  9215     0799                     l669:
  9216     0799  0860               	movf	___fldiv@bexp,w
  9217     079A  00D0               	movwf	??___fldiv
  9218     079B  1003               	clrc
  9219     079C  0C50               	rrf	??___fldiv,w
  9220     079D  00CF               	movwf	___fldiv@b+3
  9221     079E  0859               	movf	___fldiv@sign,w
  9222     079F  04CF               	iorwf	___fldiv@b+3,f
  9223     07A0  2E43               	goto	l3039
  9224     07A1                     l647:
  9225     07A1  0008               	return
  9226     07A2                     __end_of___fldiv:
  9227                           
  9228                           	psect	text30
  9229     09EC                     __ptext30:	
  9230 ;; *************** function ___fladd *****************
  9231 ;; Defined at:
  9232 ;;		line 10 in file "C:\Program Files\Microchip\xc8\v3.00\pic\sources\c99\common\sprcadd.c"
  9233 ;; Parameters:    Size  Location     Type
  9234 ;;  b               4   66[BANK0 ] unsigned char 
  9235 ;;  a               4   70[BANK0 ] unsigned char 
  9236 ;; Auto vars:     Size  Location     Type
  9237 ;;  grs             1   77[BANK0 ] unsigned char 
  9238 ;;  bexp            1   76[BANK0 ] unsigned char 
  9239 ;;  aexp            1   75[BANK0 ] unsigned char 
  9240 ;;  signs           1   74[BANK0 ] unsigned char 
  9241 ;; Return value:  Size  Location     Type
  9242 ;;                  4   66[BANK0 ] unsigned char 
  9243 ;; Registers used:
  9244 ;;		wreg, status,2, status,0, btemp+1
  9245 ;; Tracked objects:
  9246 ;;		On entry : 0/0
  9247 ;;		On exit  : 0/0
  9248 ;;		Unchanged: 0/0
  9249 ;; Data sizes:     COMMON   BANK0   BANK1   BANK3   BANK2
  9250 ;;      Params:         0       8       0       0       0
  9251 ;;      Locals:         0       4       0       0       0
  9252 ;;      Temps:          0       0       8       0       0
  9253 ;;      Totals:         0      12       8       0       0
  9254 ;;Total ram usage:       20 bytes
  9255 ;; Hardware stack levels used: 1
  9256 ;; Hardware stack levels required when called: 1
  9257 ;; This function calls:
  9258 ;;		Nothing
  9259 ;; This function is called by:
  9260 ;;		_USART_init
  9261 ;; This function uses a non-reentrant model
  9262 ;;
  9263                           
  9264     09EC                     ___fladd:	
  9265                           ;psect for function ___fladd
  9266                           
  9267     09EC                     l2795:	
  9268                           ;incstack = 0
  9269                           ; Regs used in ___fladd: [wreg+status,2+status,0+btemp+1]
  9270                           
  9271     09EC  1283               	bcf	3,5	;RP0=0, select bank0
  9272     09ED  1303               	bcf	3,6	;RP1=0, select bank0
  9273     09EE  0865               	movf	___fladd@b+3,w
  9274     09EF  00EA               	movwf	___fladd@signs
  9275     09F0                     l2797:
  9276     09F0  3080               	movlw	128
  9277     09F1  05EA               	andwf	___fladd@signs,f
  9278     09F2                     l2799:
  9279     09F2  0865               	movf	___fladd@b+3,w
  9280     09F3  1683               	bsf	3,5	;RP0=1, select bank1
  9281     09F4  1303               	bcf	3,6	;RP1=0, select bank1
  9282     09F5  00A0               	movwf	??___fladd^(0+128)
  9283     09F6  0720               	addwf	??___fladd^(0+128),w
  9284     09F7  1283               	bcf	3,5	;RP0=0, select bank0
  9285     09F8  1303               	bcf	3,6	;RP1=0, select bank0
  9286     09F9  00EC               	movwf	___fladd@bexp
  9287     09FA                     l2801:
  9288     09FA  1FE4               	btfss	___fladd@b+2,7
  9289     09FB  29FD               	goto	u3511
  9290     09FC  29FE               	goto	u3510
  9291     09FD                     u3511:
  9292     09FD  29FF               	goto	l2805
  9293     09FE                     u3510:
  9294     09FE                     l2803:
  9295     09FE  146C               	bsf	___fladd@bexp,0
  9296     09FF                     l2805:
  9297     09FF  086C               	movf	___fladd@bexp,w
  9298     0A00  1903               	btfsc	3,2
  9299     0A01  2A03               	goto	u3521
  9300     0A02  2A04               	goto	u3520
  9301     0A03                     u3521:
  9302     0A03  2A14               	goto	l2815
  9303     0A04                     u3520:
  9304     0A04                     l2807:
  9305     0A04  0A6C               	incf	___fladd@bexp,w
  9306     0A05  1D03               	btfss	3,2
  9307     0A06  2A08               	goto	u3531
  9308     0A07  2A09               	goto	u3530
  9309     0A08                     u3531:
  9310     0A08  2A11               	goto	l2811
  9311     0A09                     u3530:
  9312     0A09                     l2809:
  9313     0A09  3000               	movlw	0
  9314     0A0A  00E5               	movwf	___fladd@b+3
  9315     0A0B  3000               	movlw	0
  9316     0A0C  00E4               	movwf	___fladd@b+2
  9317     0A0D  3000               	movlw	0
  9318     0A0E  00E3               	movwf	___fladd@b+1
  9319     0A0F  3000               	movlw	0
  9320     0A10  00E2               	movwf	___fladd@b
  9321     0A11                     l2811:
  9322     0A11  17E4               	bsf	___fladd@b+2,7
  9323     0A12                     l2813:
  9324     0A12  01E5               	clrf	___fladd@b+3
  9325     0A13  2A1C               	goto	l584
  9326     0A14                     l2815:
  9327     0A14  3000               	movlw	0
  9328     0A15  00E5               	movwf	___fladd@b+3
  9329     0A16  3000               	movlw	0
  9330     0A17  00E4               	movwf	___fladd@b+2
  9331     0A18  3000               	movlw	0
  9332     0A19  00E3               	movwf	___fladd@b+1
  9333     0A1A  3000               	movlw	0
  9334     0A1B  00E2               	movwf	___fladd@b
  9335     0A1C                     l584:
  9336     0A1C  0869               	movf	___fladd@a+3,w
  9337     0A1D  00EB               	movwf	___fladd@aexp
  9338     0A1E                     l2817:
  9339     0A1E  3080               	movlw	128
  9340     0A1F  05EB               	andwf	___fladd@aexp,f
  9341     0A20                     l2819:
  9342     0A20  086B               	movf	___fladd@aexp,w
  9343     0A21  066A               	xorwf	___fladd@signs,w
  9344     0A22  1903               	skipnz
  9345     0A23  2A25               	goto	u3541
  9346     0A24  2A26               	goto	u3540
  9347     0A25                     u3541:
  9348     0A25  2A27               	goto	l2823
  9349     0A26                     u3540:
  9350     0A26                     l2821:
  9351     0A26  176A               	bsf	___fladd@signs,6
  9352     0A27                     l2823:
  9353     0A27  0869               	movf	___fladd@a+3,w
  9354     0A28  1683               	bsf	3,5	;RP0=1, select bank1
  9355     0A29  1303               	bcf	3,6	;RP1=0, select bank1
  9356     0A2A  00A0               	movwf	??___fladd^(0+128)
  9357     0A2B  0720               	addwf	??___fladd^(0+128),w
  9358     0A2C  1283               	bcf	3,5	;RP0=0, select bank0
  9359     0A2D  1303               	bcf	3,6	;RP1=0, select bank0
  9360     0A2E  00EB               	movwf	___fladd@aexp
  9361     0A2F                     l2825:
  9362     0A2F  1FE8               	btfss	___fladd@a+2,7
  9363     0A30  2A32               	goto	u3551
  9364     0A31  2A33               	goto	u3550
  9365     0A32                     u3551:
  9366     0A32  2A34               	goto	l2829
  9367     0A33                     u3550:
  9368     0A33                     l2827:
  9369     0A33  146B               	bsf	___fladd@aexp,0
  9370     0A34                     l2829:
  9371     0A34  086B               	movf	___fladd@aexp,w
  9372     0A35  1903               	btfsc	3,2
  9373     0A36  2A38               	goto	u3561
  9374     0A37  2A39               	goto	u3560
  9375     0A38                     u3561:
  9376     0A38  2A49               	goto	l2839
  9377     0A39                     u3560:
  9378     0A39                     l2831:
  9379     0A39  0A6B               	incf	___fladd@aexp,w
  9380     0A3A  1D03               	btfss	3,2
  9381     0A3B  2A3D               	goto	u3571
  9382     0A3C  2A3E               	goto	u3570
  9383     0A3D                     u3571:
  9384     0A3D  2A46               	goto	l2835
  9385     0A3E                     u3570:
  9386     0A3E                     l2833:
  9387     0A3E  3000               	movlw	0
  9388     0A3F  00E9               	movwf	___fladd@a+3
  9389     0A40  3000               	movlw	0
  9390     0A41  00E8               	movwf	___fladd@a+2
  9391     0A42  3000               	movlw	0
  9392     0A43  00E7               	movwf	___fladd@a+1
  9393     0A44  3000               	movlw	0
  9394     0A45  00E6               	movwf	___fladd@a
  9395     0A46                     l2835:
  9396     0A46  17E8               	bsf	___fladd@a+2,7
  9397     0A47                     l2837:
  9398     0A47  01E9               	clrf	___fladd@a+3
  9399     0A48  2A51               	goto	l589
  9400     0A49                     l2839:
  9401     0A49  3000               	movlw	0
  9402     0A4A  00E9               	movwf	___fladd@a+3
  9403     0A4B  3000               	movlw	0
  9404     0A4C  00E8               	movwf	___fladd@a+2
  9405     0A4D  3000               	movlw	0
  9406     0A4E  00E7               	movwf	___fladd@a+1
  9407     0A4F  3000               	movlw	0
  9408     0A50  00E6               	movwf	___fladd@a
  9409     0A51                     l589:
  9410     0A51  086C               	movf	___fladd@bexp,w
  9411     0A52  026B               	subwf	___fladd@aexp,w
  9412     0A53  1803               	skipnc
  9413     0A54  2A56               	goto	u3581
  9414     0A55  2A57               	goto	u3580
  9415     0A56                     u3581:
  9416     0A56  2A7B               	goto	l2875
  9417     0A57                     u3580:
  9418     0A57                     l2841:
  9419     0A57  1F6A               	btfss	___fladd@signs,6
  9420     0A58  2A5A               	goto	u3591
  9421     0A59  2A5B               	goto	u3590
  9422     0A5A                     u3591:
  9423     0A5A  2A5D               	goto	l2845
  9424     0A5B                     u3590:
  9425     0A5B                     l2843:
  9426     0A5B  3080               	movlw	128
  9427     0A5C  06EA               	xorwf	___fladd@signs,f
  9428     0A5D                     l2845:
  9429     0A5D  086C               	movf	___fladd@bexp,w
  9430     0A5E  00ED               	movwf	___fladd@grs
  9431     0A5F                     l2847:
  9432     0A5F  086B               	movf	___fladd@aexp,w
  9433     0A60  00EC               	movwf	___fladd@bexp
  9434     0A61                     l2849:
  9435     0A61  086D               	movf	___fladd@grs,w
  9436     0A62  00EB               	movwf	___fladd@aexp
  9437     0A63                     l2851:
  9438     0A63  0862               	movf	___fladd@b,w
  9439     0A64  00ED               	movwf	___fladd@grs
  9440     0A65                     l2853:
  9441     0A65  0866               	movf	___fladd@a,w
  9442     0A66  00E2               	movwf	___fladd@b
  9443     0A67                     l2855:
  9444     0A67  086D               	movf	___fladd@grs,w
  9445     0A68  00E6               	movwf	___fladd@a
  9446     0A69                     l2857:
  9447     0A69  0863               	movf	___fladd@b+1,w
  9448     0A6A  00ED               	movwf	___fladd@grs
  9449     0A6B                     l2859:
  9450     0A6B  0867               	movf	___fladd@a+1,w
  9451     0A6C  00E3               	movwf	___fladd@b+1
  9452     0A6D                     l2861:
  9453     0A6D  086D               	movf	___fladd@grs,w
  9454     0A6E  00E7               	movwf	___fladd@a+1
  9455     0A6F                     l2863:
  9456     0A6F  0864               	movf	___fladd@b+2,w
  9457     0A70  00ED               	movwf	___fladd@grs
  9458     0A71                     l2865:
  9459     0A71  0868               	movf	___fladd@a+2,w
  9460     0A72  00E4               	movwf	___fladd@b+2
  9461     0A73                     l2867:
  9462     0A73  086D               	movf	___fladd@grs,w
  9463     0A74  00E8               	movwf	___fladd@a+2
  9464     0A75                     l2869:
  9465     0A75  0865               	movf	___fladd@b+3,w
  9466     0A76  00ED               	movwf	___fladd@grs
  9467     0A77                     l2871:
  9468     0A77  0869               	movf	___fladd@a+3,w
  9469     0A78  00E5               	movwf	___fladd@b+3
  9470     0A79                     l2873:
  9471     0A79  086D               	movf	___fladd@grs,w
  9472     0A7A  00E9               	movwf	___fladd@a+3
  9473     0A7B                     l2875:
  9474     0A7B  01ED               	clrf	___fladd@grs
  9475     0A7C                     l2877:
  9476     0A7C  086B               	movf	___fladd@aexp,w
  9477     0A7D  1683               	bsf	3,5	;RP0=1, select bank1
  9478     0A7E  1303               	bcf	3,6	;RP1=0, select bank1
  9479     0A7F  00A0               	movwf	??___fladd^(0+128)
  9480     0A80  01A1               	clrf	(??___fladd^(0+128)+1)
  9481     0A81  0821               	movf	(??___fladd+1)^(0+128),w
  9482     0A82  00A3               	movwf	((??___fladd+2)^(0+128)+1)
  9483     0A83  1283               	bcf	3,5	;RP0=0, select bank0
  9484     0A84  1303               	bcf	3,6	;RP1=0, select bank0
  9485     0A85  086C               	movf	___fladd@bexp,w
  9486     0A86  1683               	bsf	3,5	;RP0=1, select bank1
  9487     0A87  1303               	bcf	3,6	;RP1=0, select bank1
  9488     0A88  0220               	subwf	??___fladd^(0+128),w
  9489     0A89  00A2               	movwf	(??___fladd+2)^(0+128)
  9490     0A8A  1C03               	skipc
  9491     0A8B  03A3               	decf	((??___fladd+2)^(0+128)+1),f
  9492     0A8C  0823               	movf	(??___fladd+3)^(0+128),w
  9493     0A8D  3A80               	xorlw	128
  9494     0A8E  00FF               	movwf	btemp+1
  9495     0A8F  3080               	movlw	128
  9496     0A90  027F               	subwf	btemp+1,w
  9497     0A91  1D03               	skipz
  9498     0A92  2A95               	goto	u3605
  9499     0A93  301A               	movlw	26
  9500     0A94  0222               	subwf	(??___fladd+2)^(0+128),w
  9501     0A95                     u3605:
  9502     0A95  1C03               	skipc
  9503     0A96  2A98               	goto	u3601
  9504     0A97  2A99               	goto	u3600
  9505     0A98                     u3601:
  9506     0A98  2ADA               	goto	l2893
  9507     0A99                     u3600:
  9508     0A99                     l2879:
  9509     0A99  1283               	bcf	3,5	;RP0=0, select bank0
  9510     0A9A  1303               	bcf	3,6	;RP1=0, select bank0
  9511     0A9B  0865               	movf	___fladd@b+3,w
  9512     0A9C  0464               	iorwf	___fladd@b+2,w
  9513     0A9D  0463               	iorwf	___fladd@b+1,w
  9514     0A9E  0462               	iorwf	___fladd@b,w
  9515     0A9F  1D03               	skipz
  9516     0AA0  2AA2               	goto	u3611
  9517     0AA1  2AA4               	goto	u3610
  9518     0AA2                     u3611:
  9519     0AA2  3001               	movlw	1
  9520     0AA3  2AA5               	goto	u3620
  9521     0AA4                     u3610:
  9522     0AA4  3000               	movlw	0
  9523     0AA5                     u3620:
  9524     0AA5  00ED               	movwf	___fladd@grs
  9525     0AA6  3000               	movlw	0
  9526     0AA7  00E5               	movwf	___fladd@b+3
  9527     0AA8  3000               	movlw	0
  9528     0AA9  00E4               	movwf	___fladd@b+2
  9529     0AAA  3000               	movlw	0
  9530     0AAB  00E3               	movwf	___fladd@b+1
  9531     0AAC  3000               	movlw	0
  9532     0AAD  00E2               	movwf	___fladd@b
  9533     0AAE  086B               	movf	___fladd@aexp,w
  9534     0AAF  00EC               	movwf	___fladd@bexp
  9535     0AB0  2AE2               	goto	l593
  9536     0AB1                     l595:
  9537     0AB1  1C6D               	btfss	___fladd@grs,0
  9538     0AB2  2AB4               	goto	u3631
  9539     0AB3  2AB5               	goto	u3630
  9540     0AB4                     u3631:
  9541     0AB4  2AC0               	goto	l2883
  9542     0AB5                     u3630:
  9543     0AB5                     l2881:
  9544     0AB5  086D               	movf	___fladd@grs,w
  9545     0AB6  1683               	bsf	3,5	;RP0=1, select bank1
  9546     0AB7  1303               	bcf	3,6	;RP1=0, select bank1
  9547     0AB8  00A0               	movwf	??___fladd^(0+128)
  9548     0AB9  1003               	clrc
  9549     0ABA  0C20               	rrf	??___fladd^(0+128),w
  9550     0ABB  3801               	iorlw	1
  9551     0ABC  1283               	bcf	3,5	;RP0=0, select bank0
  9552     0ABD  1303               	bcf	3,6	;RP1=0, select bank0
  9553     0ABE  00ED               	movwf	___fladd@grs
  9554     0ABF  2AC2               	goto	l2885
  9555     0AC0                     l2883:
  9556     0AC0  1003               	clrc
  9557     0AC1  0CED               	rrf	___fladd@grs,f
  9558     0AC2                     l2885:
  9559     0AC2  1C62               	btfss	___fladd@b,0
  9560     0AC3  2AC5               	goto	u3641
  9561     0AC4  2AC6               	goto	u3640
  9562     0AC5                     u3641:
  9563     0AC5  2AC7               	goto	l2889
  9564     0AC6                     u3640:
  9565     0AC6                     l2887:
  9566     0AC6  17ED               	bsf	___fladd@grs,7
  9567     0AC7                     l2889:
  9568     0AC7  3001               	movlw	1
  9569     0AC8  1683               	bsf	3,5	;RP0=1, select bank1
  9570     0AC9  1303               	bcf	3,6	;RP1=0, select bank1
  9571     0ACA  00A0               	movwf	??___fladd^(0+128)
  9572     0ACB                     u3655:
  9573     0ACB  1283               	bcf	3,5	;RP0=0, select bank0
  9574     0ACC  1303               	bcf	3,6	;RP1=0, select bank0
  9575     0ACD  0D65               	rlf	___fladd@b+3,w
  9576     0ACE  0CE5               	rrf	___fladd@b+3,f
  9577     0ACF  0CE4               	rrf	___fladd@b+2,f
  9578     0AD0  0CE3               	rrf	___fladd@b+1,f
  9579     0AD1  0CE2               	rrf	___fladd@b,f
  9580     0AD2  1683               	bsf	3,5	;RP0=1, select bank1
  9581     0AD3  1303               	bcf	3,6	;RP1=0, select bank1
  9582     0AD4  0BA0               	decfsz	(??___fladd^(0+128))& (0+127),f
  9583     0AD5  2ACB               	goto	u3655
  9584     0AD6                     l2891:
  9585     0AD6  3001               	movlw	1
  9586     0AD7  1283               	bcf	3,5	;RP0=0, select bank0
  9587     0AD8  1303               	bcf	3,6	;RP1=0, select bank0
  9588     0AD9  07EC               	addwf	___fladd@bexp,f
  9589     0ADA                     l2893:
  9590     0ADA  1283               	bcf	3,5	;RP0=0, select bank0
  9591     0ADB  1303               	bcf	3,6	;RP1=0, select bank0
  9592     0ADC  086B               	movf	___fladd@aexp,w
  9593     0ADD  026C               	subwf	___fladd@bexp,w
  9594     0ADE  1C03               	skipc
  9595     0ADF  2AE1               	goto	u3661
  9596     0AE0  2AE2               	goto	u3660
  9597     0AE1                     u3661:
  9598     0AE1  2AB1               	goto	l595
  9599     0AE2                     u3660:
  9600     0AE2                     l593:
  9601     0AE2  1B6A               	btfsc	___fladd@signs,6
  9602     0AE3  2AE5               	goto	u3671
  9603     0AE4  2AE6               	goto	u3670
  9604     0AE5                     u3671:
  9605     0AE5  2B39               	goto	l2919
  9606     0AE6                     u3670:
  9607     0AE6                     l2895:
  9608     0AE6  086C               	movf	___fladd@bexp,w
  9609     0AE7  1D03               	btfss	3,2
  9610     0AE8  2AEA               	goto	u3681
  9611     0AE9  2AEB               	goto	u3680
  9612     0AEA                     u3681:
  9613     0AEA  2AF4               	goto	l2901
  9614     0AEB                     u3680:
  9615     0AEB                     l2897:
  9616     0AEB  3000               	movlw	0
  9617     0AEC  00E5               	movwf	?___fladd+3
  9618     0AED  3000               	movlw	0
  9619     0AEE  00E4               	movwf	?___fladd+2
  9620     0AEF  3000               	movlw	0
  9621     0AF0  00E3               	movwf	?___fladd+1
  9622     0AF1  3000               	movlw	0
  9623     0AF2  00E2               	movwf	?___fladd
  9624     0AF3  2CBD               	goto	l602
  9625     0AF4                     l2901:
  9626     0AF4  0866               	movf	___fladd@a,w
  9627     0AF5  07E2               	addwf	___fladd@b,f
  9628     0AF6  0867               	movf	___fladd@a+1,w
  9629     0AF7  1103               	clrz
  9630     0AF8  1803               	skipnc
  9631     0AF9  3E01               	addlw	1
  9632     0AFA  1903               	skipnz
  9633     0AFB  2AFD               	goto	u3691
  9634     0AFC  07E3               	addwf	___fladd@b+1,f
  9635     0AFD                     u3691:
  9636     0AFD  0868               	movf	___fladd@a+2,w
  9637     0AFE  1103               	clrz
  9638     0AFF  1803               	skipnc
  9639     0B00  3E01               	addlw	1
  9640     0B01  1903               	skipnz
  9641     0B02  2B04               	goto	u3692
  9642     0B03  07E4               	addwf	___fladd@b+2,f
  9643     0B04                     u3692:
  9644     0B04  0869               	movf	___fladd@a+3,w
  9645     0B05  1103               	clrz
  9646     0B06  1803               	skipnc
  9647     0B07  3E01               	addlw	1
  9648     0B08  1903               	skipnz
  9649     0B09  2B0B               	goto	u3693
  9650     0B0A  07E5               	addwf	___fladd@b+3,f
  9651     0B0B                     u3693:
  9652     0B0B                     l2903:
  9653     0B0B  1C65               	btfss	___fladd@b+3,0
  9654     0B0C  2B0E               	goto	u3701
  9655     0B0D  2B0F               	goto	u3700
  9656     0B0E                     u3701:
  9657     0B0E  2C29               	goto	l2955
  9658     0B0F                     u3700:
  9659     0B0F                     l2905:
  9660     0B0F  1C6D               	btfss	___fladd@grs,0
  9661     0B10  2B12               	goto	u3711
  9662     0B11  2B13               	goto	u3710
  9663     0B12                     u3711:
  9664     0B12  2B1E               	goto	l2909
  9665     0B13                     u3710:
  9666     0B13                     l2907:
  9667     0B13  086D               	movf	___fladd@grs,w
  9668     0B14  1683               	bsf	3,5	;RP0=1, select bank1
  9669     0B15  1303               	bcf	3,6	;RP1=0, select bank1
  9670     0B16  00A0               	movwf	??___fladd^(0+128)
  9671     0B17  1003               	clrc
  9672     0B18  0C20               	rrf	??___fladd^(0+128),w
  9673     0B19  3801               	iorlw	1
  9674     0B1A  1283               	bcf	3,5	;RP0=0, select bank0
  9675     0B1B  1303               	bcf	3,6	;RP1=0, select bank0
  9676     0B1C  00ED               	movwf	___fladd@grs
  9677     0B1D  2B20               	goto	l2911
  9678     0B1E                     l2909:
  9679     0B1E  1003               	clrc
  9680     0B1F  0CED               	rrf	___fladd@grs,f
  9681     0B20                     l2911:
  9682     0B20  1C62               	btfss	___fladd@b,0
  9683     0B21  2B23               	goto	u3721
  9684     0B22  2B24               	goto	u3720
  9685     0B23                     u3721:
  9686     0B23  2B25               	goto	l2915
  9687     0B24                     u3720:
  9688     0B24                     l2913:
  9689     0B24  17ED               	bsf	___fladd@grs,7
  9690     0B25                     l2915:
  9691     0B25  3001               	movlw	1
  9692     0B26  1683               	bsf	3,5	;RP0=1, select bank1
  9693     0B27  1303               	bcf	3,6	;RP1=0, select bank1
  9694     0B28  00A0               	movwf	??___fladd^(0+128)
  9695     0B29                     u3735:
  9696     0B29  1283               	bcf	3,5	;RP0=0, select bank0
  9697     0B2A  1303               	bcf	3,6	;RP1=0, select bank0
  9698     0B2B  0D65               	rlf	___fladd@b+3,w
  9699     0B2C  0CE5               	rrf	___fladd@b+3,f
  9700     0B2D  0CE4               	rrf	___fladd@b+2,f
  9701     0B2E  0CE3               	rrf	___fladd@b+1,f
  9702     0B2F  0CE2               	rrf	___fladd@b,f
  9703     0B30  1683               	bsf	3,5	;RP0=1, select bank1
  9704     0B31  1303               	bcf	3,6	;RP1=0, select bank1
  9705     0B32  0BA0               	decfsz	(??___fladd^(0+128))& (0+127),f
  9706     0B33  2B29               	goto	u3735
  9707     0B34                     l2917:
  9708     0B34  3001               	movlw	1
  9709     0B35  1283               	bcf	3,5	;RP0=0, select bank0
  9710     0B36  1303               	bcf	3,6	;RP1=0, select bank0
  9711     0B37  07EC               	addwf	___fladd@bexp,f
  9712     0B38  2C29               	goto	l2955
  9713     0B39                     l2919:
  9714     0B39  0865               	movf	___fladd@b+3,w
  9715     0B3A  3A80               	xorlw	128
  9716     0B3B  00FF               	movwf	btemp+1
  9717     0B3C  0869               	movf	___fladd@a+3,w
  9718     0B3D  3A80               	xorlw	128
  9719     0B3E  027F               	subwf	btemp+1,w
  9720     0B3F  1D03               	skipz
  9721     0B40  2B4B               	goto	u3743
  9722     0B41  0868               	movf	___fladd@a+2,w
  9723     0B42  0264               	subwf	___fladd@b+2,w
  9724     0B43  1D03               	skipz
  9725     0B44  2B4B               	goto	u3743
  9726     0B45  0867               	movf	___fladd@a+1,w
  9727     0B46  0263               	subwf	___fladd@b+1,w
  9728     0B47  1D03               	skipz
  9729     0B48  2B4B               	goto	u3743
  9730     0B49  0866               	movf	___fladd@a,w
  9731     0B4A  0262               	subwf	___fladd@b,w
  9732     0B4B                     u3743:
  9733     0B4B  1803               	skipnc
  9734     0B4C  2B4E               	goto	u3741
  9735     0B4D  2B4F               	goto	u3740
  9736     0B4E                     u3741:
  9737     0B4E  2BDA               	goto	l2931
  9738     0B4F                     u3740:
  9739     0B4F                     l2921:
  9740     0B4F  30FF               	movlw	255
  9741     0B50  1683               	bsf	3,5	;RP0=1, select bank1
  9742     0B51  1303               	bcf	3,6	;RP1=0, select bank1
  9743     0B52  00A0               	movwf	??___fladd^(0+128)
  9744     0B53  30FF               	movlw	255
  9745     0B54  00A1               	movwf	(??___fladd^(0+128)+1)
  9746     0B55  30FF               	movlw	255
  9747     0B56  00A2               	movwf	(??___fladd^(0+128)+2)
  9748     0B57  30FF               	movlw	255
  9749     0B58  00A3               	movwf	(??___fladd^(0+128)+3)
  9750     0B59  1283               	bcf	3,5	;RP0=0, select bank0
  9751     0B5A  1303               	bcf	3,6	;RP1=0, select bank0
  9752     0B5B  0866               	movf	___fladd@a,w
  9753     0B5C  1683               	bsf	3,5	;RP0=1, select bank1
  9754     0B5D  1303               	bcf	3,6	;RP1=0, select bank1
  9755     0B5E  00A4               	movwf	(??___fladd+4)^(0+128)
  9756     0B5F  1283               	bcf	3,5	;RP0=0, select bank0
  9757     0B60  1303               	bcf	3,6	;RP1=0, select bank0
  9758     0B61  0867               	movf	___fladd@a+1,w
  9759     0B62  1683               	bsf	3,5	;RP0=1, select bank1
  9760     0B63  1303               	bcf	3,6	;RP1=0, select bank1
  9761     0B64  00A5               	movwf	((??___fladd+4)^(0+128)+1)
  9762     0B65  1283               	bcf	3,5	;RP0=0, select bank0
  9763     0B66  1303               	bcf	3,6	;RP1=0, select bank0
  9764     0B67  0868               	movf	___fladd@a+2,w
  9765     0B68  1683               	bsf	3,5	;RP0=1, select bank1
  9766     0B69  1303               	bcf	3,6	;RP1=0, select bank1
  9767     0B6A  00A6               	movwf	((??___fladd+4)^(0+128)+2)
  9768     0B6B  1283               	bcf	3,5	;RP0=0, select bank0
  9769     0B6C  1303               	bcf	3,6	;RP1=0, select bank0
  9770     0B6D  0869               	movf	___fladd@a+3,w
  9771     0B6E  1683               	bsf	3,5	;RP0=1, select bank1
  9772     0B6F  1303               	bcf	3,6	;RP1=0, select bank1
  9773     0B70  00A7               	movwf	((??___fladd+4)^(0+128)+3)
  9774     0B71  1283               	bcf	3,5	;RP0=0, select bank0
  9775     0B72  1303               	bcf	3,6	;RP1=0, select bank0
  9776     0B73  0862               	movf	___fladd@b,w
  9777     0B74  1683               	bsf	3,5	;RP0=1, select bank1
  9778     0B75  1303               	bcf	3,6	;RP1=0, select bank1
  9779     0B76  02A4               	subwf	(??___fladd+4)^(0+128),f
  9780     0B77  1283               	bcf	3,5	;RP0=0, select bank0
  9781     0B78  1303               	bcf	3,6	;RP1=0, select bank0
  9782     0B79  0863               	movf	___fladd@b+1,w
  9783     0B7A  1C03               	skipc
  9784     0B7B  0F63               	incfsz	___fladd@b+1,w
  9785     0B7C  2B7E               	goto	u3751
  9786     0B7D  2B81               	goto	u3752
  9787     0B7E                     u3751:
  9788     0B7E  1683               	bsf	3,5	;RP0=1, select bank1
  9789     0B7F  1303               	bcf	3,6	;RP1=0, select bank1
  9790     0B80  02A5               	subwf	((??___fladd+4)^(0+128)+1),f
  9791     0B81                     u3752:
  9792     0B81  1283               	bcf	3,5	;RP0=0, select bank0
  9793     0B82  1303               	bcf	3,6	;RP1=0, select bank0
  9794     0B83  0864               	movf	___fladd@b+2,w
  9795     0B84  1C03               	skipc
  9796     0B85  0F64               	incfsz	___fladd@b+2,w
  9797     0B86  2B88               	goto	u3753
  9798     0B87  2B8B               	goto	u3754
  9799     0B88                     u3753:
  9800     0B88  1683               	bsf	3,5	;RP0=1, select bank1
  9801     0B89  1303               	bcf	3,6	;RP1=0, select bank1
  9802     0B8A  02A6               	subwf	((??___fladd+4)^(0+128)+2),f
  9803     0B8B                     u3754:
  9804     0B8B  1283               	bcf	3,5	;RP0=0, select bank0
  9805     0B8C  1303               	bcf	3,6	;RP1=0, select bank0
  9806     0B8D  0865               	movf	___fladd@b+3,w
  9807     0B8E  1C03               	skipc
  9808     0B8F  0F65               	incfsz	___fladd@b+3,w
  9809     0B90  2B92               	goto	u3755
  9810     0B91  2B95               	goto	u3756
  9811     0B92                     u3755:
  9812     0B92  1683               	bsf	3,5	;RP0=1, select bank1
  9813     0B93  1303               	bcf	3,6	;RP1=0, select bank1
  9814     0B94  02A7               	subwf	((??___fladd+4)^(0+128)+3),f
  9815     0B95                     u3756:
  9816     0B95  1283               	bcf	3,5	;RP0=0, select bank0
  9817     0B96  1303               	bcf	3,6	;RP1=0, select bank0
  9818     0B97  1683               	bsf	3,5	;RP0=1, select bank1
  9819     0B98  1303               	bcf	3,6	;RP1=0, select bank1
  9820     0B99  0824               	movf	(??___fladd+4)^(0+128),w
  9821     0B9A  07A0               	addwf	??___fladd^(0+128),f
  9822     0B9B  0825               	movf	(??___fladd+5)^(0+128),w
  9823     0B9C  1803               	skipnc
  9824     0B9D  0F25               	incfsz	(??___fladd+5)^(0+128),w
  9825     0B9E  2BA0               	goto	u3760
  9826     0B9F  2BA1               	goto	u3761
  9827     0BA0                     u3760:
  9828     0BA0  07A1               	addwf	(??___fladd^(0+128)+1),f
  9829     0BA1                     u3761:
  9830     0BA1  0826               	movf	(??___fladd+6)^(0+128),w
  9831     0BA2  1803               	skipnc
  9832     0BA3  0F26               	incfsz	(??___fladd+6)^(0+128),w
  9833     0BA4  2BA6               	goto	u3762
  9834     0BA5  2BA7               	goto	u3763
  9835     0BA6                     u3762:
  9836     0BA6  07A2               	addwf	(??___fladd^(0+128)+2),f
  9837     0BA7                     u3763:
  9838     0BA7  0827               	movf	(??___fladd+7)^(0+128),w
  9839     0BA8  1803               	skipnc
  9840     0BA9  0A27               	incf	(??___fladd+7)^(0+128),w
  9841     0BAA  07A3               	addwf	(??___fladd^(0+128)+3),f
  9842     0BAB  0823               	movf	(??___fladd+3)^(0+128),w
  9843     0BAC  1283               	bcf	3,5	;RP0=0, select bank0
  9844     0BAD  1303               	bcf	3,6	;RP1=0, select bank0
  9845     0BAE  00E5               	movwf	___fladd@b+3
  9846     0BAF  1683               	bsf	3,5	;RP0=1, select bank1
  9847     0BB0  1303               	bcf	3,6	;RP1=0, select bank1
  9848     0BB1  0822               	movf	(??___fladd+2)^(0+128),w
  9849     0BB2  1283               	bcf	3,5	;RP0=0, select bank0
  9850     0BB3  1303               	bcf	3,6	;RP1=0, select bank0
  9851     0BB4  00E4               	movwf	___fladd@b+2
  9852     0BB5  1683               	bsf	3,5	;RP0=1, select bank1
  9853     0BB6  1303               	bcf	3,6	;RP1=0, select bank1
  9854     0BB7  0821               	movf	(??___fladd+1)^(0+128),w
  9855     0BB8  1283               	bcf	3,5	;RP0=0, select bank0
  9856     0BB9  1303               	bcf	3,6	;RP1=0, select bank0
  9857     0BBA  00E3               	movwf	___fladd@b+1
  9858     0BBB  1683               	bsf	3,5	;RP0=1, select bank1
  9859     0BBC  1303               	bcf	3,6	;RP1=0, select bank1
  9860     0BBD  0820               	movf	??___fladd^(0+128),w
  9861     0BBE  1283               	bcf	3,5	;RP0=0, select bank0
  9862     0BBF  1303               	bcf	3,6	;RP1=0, select bank0
  9863     0BC0  00E2               	movwf	___fladd@b
  9864     0BC1                     l2923:
  9865     0BC1  3080               	movlw	128
  9866     0BC2  06EA               	xorwf	___fladd@signs,f
  9867     0BC3                     l2925:
  9868     0BC3  036D               	decf	___fladd@grs,w
  9869     0BC4  3AFF               	xorlw	255
  9870     0BC5  00ED               	movwf	___fladd@grs
  9871     0BC6                     l2927:
  9872     0BC6  086D               	movf	___fladd@grs,w
  9873     0BC7  1D03               	btfss	3,2
  9874     0BC8  2BCA               	goto	u3771
  9875     0BC9  2BCB               	goto	u3770
  9876     0BCA                     u3771:
  9877     0BCA  2BE8               	goto	l610
  9878     0BCB                     u3770:
  9879     0BCB                     l2929:
  9880     0BCB  3001               	movlw	1
  9881     0BCC  07E2               	addwf	___fladd@b,f
  9882     0BCD  3000               	movlw	0
  9883     0BCE  1803               	skipnc
  9884     0BCF  3001               	movlw	1
  9885     0BD0  07E3               	addwf	___fladd@b+1,f
  9886     0BD1  3000               	movlw	0
  9887     0BD2  1803               	skipnc
  9888     0BD3  3001               	movlw	1
  9889     0BD4  07E4               	addwf	___fladd@b+2,f
  9890     0BD5  3000               	movlw	0
  9891     0BD6  1803               	skipnc
  9892     0BD7  3001               	movlw	1
  9893     0BD8  07E5               	addwf	___fladd@b+3,f
  9894     0BD9  2BE8               	goto	l610
  9895     0BDA                     l2931:
  9896     0BDA  0866               	movf	___fladd@a,w
  9897     0BDB  02E2               	subwf	___fladd@b,f
  9898     0BDC  0867               	movf	___fladd@a+1,w
  9899     0BDD  1C03               	skipc
  9900     0BDE  0F67               	incfsz	___fladd@a+1,w
  9901     0BDF  02E3               	subwf	___fladd@b+1,f
  9902     0BE0  0868               	movf	___fladd@a+2,w
  9903     0BE1  1C03               	skipc
  9904     0BE2  0F68               	incfsz	___fladd@a+2,w
  9905     0BE3  02E4               	subwf	___fladd@b+2,f
  9906     0BE4  0869               	movf	___fladd@a+3,w
  9907     0BE5  1C03               	skipc
  9908     0BE6  0F69               	incfsz	___fladd@a+3,w
  9909     0BE7  02E5               	subwf	___fladd@b+3,f
  9910     0BE8                     l610:
  9911     0BE8  0865               	movf	___fladd@b+3,w
  9912     0BE9  0464               	iorwf	___fladd@b+2,w
  9913     0BEA  0463               	iorwf	___fladd@b+1,w
  9914     0BEB  0462               	iorwf	___fladd@b,w
  9915     0BEC  1D03               	skipz
  9916     0BED  2BEF               	goto	u3781
  9917     0BEE  2BF0               	goto	u3780
  9918     0BEF                     u3781:
  9919     0BEF  2C25               	goto	l2953
  9920     0BF0                     u3780:
  9921     0BF0                     l2933:
  9922     0BF0  086D               	movf	___fladd@grs,w
  9923     0BF1  1D03               	btfss	3,2
  9924     0BF2  2BF4               	goto	u3791
  9925     0BF3  2BF5               	goto	u3790
  9926     0BF4                     u3791:
  9927     0BF4  2C25               	goto	l2953
  9928     0BF5                     u3790:
  9929     0BF5                     l2935:
  9930     0BF5  3000               	movlw	0
  9931     0BF6  00E5               	movwf	?___fladd+3
  9932     0BF7  3000               	movlw	0
  9933     0BF8  00E4               	movwf	?___fladd+2
  9934     0BF9  3000               	movlw	0
  9935     0BFA  00E3               	movwf	?___fladd+1
  9936     0BFB  3000               	movlw	0
  9937     0BFC  00E2               	movwf	?___fladd
  9938     0BFD  2CBD               	goto	l602
  9939     0BFE                     l2939:
  9940     0BFE  3001               	movlw	1
  9941     0BFF  1683               	bsf	3,5	;RP0=1, select bank1
  9942     0C00  1303               	bcf	3,6	;RP1=0, select bank1
  9943     0C01  00A0               	movwf	??___fladd^(0+128)
  9944     0C02                     u3805:
  9945     0C02  1003               	clrc
  9946     0C03  1283               	bcf	3,5	;RP0=0, select bank0
  9947     0C04  1303               	bcf	3,6	;RP1=0, select bank0
  9948     0C05  0DE2               	rlf	___fladd@b,f
  9949     0C06  0DE3               	rlf	___fladd@b+1,f
  9950     0C07  0DE4               	rlf	___fladd@b+2,f
  9951     0C08  0DE5               	rlf	___fladd@b+3,f
  9952     0C09  1683               	bsf	3,5	;RP0=1, select bank1
  9953     0C0A  1303               	bcf	3,6	;RP1=0, select bank1
  9954     0C0B  0BA0               	decfsz	??___fladd^(0+128),f
  9955     0C0C  2C02               	goto	u3805
  9956     0C0D                     l2941:
  9957     0C0D  1283               	bcf	3,5	;RP0=0, select bank0
  9958     0C0E  1303               	bcf	3,6	;RP1=0, select bank0
  9959     0C0F  1FED               	btfss	___fladd@grs,7
  9960     0C10  2C12               	goto	u3811
  9961     0C11  2C13               	goto	u3810
  9962     0C12                     u3811:
  9963     0C12  2C14               	goto	l614
  9964     0C13                     u3810:
  9965     0C13                     l2943:
  9966     0C13  1462               	bsf	___fladd@b,0
  9967     0C14                     l614:
  9968     0C14  1C6D               	btfss	___fladd@grs,0
  9969     0C15  2C17               	goto	u3821
  9970     0C16  2C18               	goto	u3820
  9971     0C17                     u3821:
  9972     0C17  2C1C               	goto	l2947
  9973     0C18                     u3820:
  9974     0C18                     l2945:
  9975     0C18  1403               	setc
  9976     0C19  0D6D               	rlf	___fladd@grs,w
  9977     0C1A  00ED               	movwf	___fladd@grs
  9978     0C1B  2C1E               	goto	l2949
  9979     0C1C                     l2947:
  9980     0C1C  1003               	clrc
  9981     0C1D  0DED               	rlf	___fladd@grs,f
  9982     0C1E                     l2949:
  9983     0C1E  086C               	movf	___fladd@bexp,w
  9984     0C1F  1903               	btfsc	3,2
  9985     0C20  2C22               	goto	u3831
  9986     0C21  2C23               	goto	u3830
  9987     0C22                     u3831:
  9988     0C22  2C25               	goto	l2953
  9989     0C23                     u3830:
  9990     0C23                     l2951:
  9991     0C23  3001               	movlw	1
  9992     0C24  02EC               	subwf	___fladd@bexp,f
  9993     0C25                     l2953:
  9994     0C25  1FE4               	btfss	___fladd@b+2,7
  9995     0C26  2C28               	goto	u3841
  9996     0C27  2C29               	goto	u3840
  9997     0C28                     u3841:
  9998     0C28  2BFE               	goto	l2939
  9999     0C29                     u3840:
 10000     0C29                     l2955:
 10001     0C29  01EB               	clrf	___fladd@aexp
 10002     0C2A                     l2957:
 10003     0C2A  1FED               	btfss	___fladd@grs,7
 10004     0C2B  2C2D               	goto	u3851
 10005     0C2C  2C2E               	goto	u3850
 10006     0C2D                     u3851:
 10007     0C2D  2C3C               	goto	l2965
 10008     0C2E                     u3850:
 10009     0C2E                     l2959:
 10010     0C2E  086D               	movf	___fladd@grs,w
 10011     0C2F  397F               	andlw	127
 10012     0C30  1903               	btfsc	3,2
 10013     0C31  2C33               	goto	u3861
 10014     0C32  2C34               	goto	u3860
 10015     0C33                     u3861:
 10016     0C33  2C37               	goto	l620
 10017     0C34                     u3860:
 10018     0C34                     l2961:
 10019     0C34  3001               	movlw	1
 10020     0C35  00EB               	movwf	___fladd@aexp
 10021     0C36  2C3C               	goto	l2965
 10022     0C37                     l620:
 10023     0C37  1C62               	btfss	___fladd@b,0
 10024     0C38  2C3A               	goto	u3871
 10025     0C39  2C3B               	goto	u3870
 10026     0C3A                     u3871:
 10027     0C3A  2C3C               	goto	l2965
 10028     0C3B                     u3870:
 10029     0C3B  2C34               	goto	l2961
 10030     0C3C                     l2965:
 10031     0C3C  086B               	movf	___fladd@aexp,w
 10032     0C3D  1903               	btfsc	3,2
 10033     0C3E  2C40               	goto	u3881
 10034     0C3F  2C41               	goto	u3880
 10035     0C40                     u3881:
 10036     0C40  2C8F               	goto	l623
 10037     0C41                     u3880:
 10038     0C41                     l2967:
 10039     0C41  3001               	movlw	1
 10040     0C42  07E2               	addwf	___fladd@b,f
 10041     0C43  3000               	movlw	0
 10042     0C44  1803               	skipnc
 10043     0C45  3001               	movlw	1
 10044     0C46  07E3               	addwf	___fladd@b+1,f
 10045     0C47  3000               	movlw	0
 10046     0C48  1803               	skipnc
 10047     0C49  3001               	movlw	1
 10048     0C4A  07E4               	addwf	___fladd@b+2,f
 10049     0C4B  3000               	movlw	0
 10050     0C4C  1803               	skipnc
 10051     0C4D  3001               	movlw	1
 10052     0C4E  07E5               	addwf	___fladd@b+3,f
 10053     0C4F                     l2969:
 10054     0C4F  1C65               	btfss	___fladd@b+3,0
 10055     0C50  2C52               	goto	u3891
 10056     0C51  2C53               	goto	u3890
 10057     0C52                     u3891:
 10058     0C52  2C8F               	goto	l623
 10059     0C53                     u3890:
 10060     0C53                     l2971:
 10061     0C53  0862               	movf	___fladd@b,w
 10062     0C54  1683               	bsf	3,5	;RP0=1, select bank1
 10063     0C55  1303               	bcf	3,6	;RP1=0, select bank1
 10064     0C56  00A0               	movwf	??___fladd^(0+128)
 10065     0C57  1283               	bcf	3,5	;RP0=0, select bank0
 10066     0C58  1303               	bcf	3,6	;RP1=0, select bank0
 10067     0C59  0863               	movf	___fladd@b+1,w
 10068     0C5A  1683               	bsf	3,5	;RP0=1, select bank1
 10069     0C5B  1303               	bcf	3,6	;RP1=0, select bank1
 10070     0C5C  00A1               	movwf	(??___fladd^(0+128)+1)
 10071     0C5D  1283               	bcf	3,5	;RP0=0, select bank0
 10072     0C5E  1303               	bcf	3,6	;RP1=0, select bank0
 10073     0C5F  0864               	movf	___fladd@b+2,w
 10074     0C60  1683               	bsf	3,5	;RP0=1, select bank1
 10075     0C61  1303               	bcf	3,6	;RP1=0, select bank1
 10076     0C62  00A2               	movwf	(??___fladd^(0+128)+2)
 10077     0C63  1283               	bcf	3,5	;RP0=0, select bank0
 10078     0C64  1303               	bcf	3,6	;RP1=0, select bank0
 10079     0C65  0865               	movf	___fladd@b+3,w
 10080     0C66  1683               	bsf	3,5	;RP0=1, select bank1
 10081     0C67  1303               	bcf	3,6	;RP1=0, select bank1
 10082     0C68  00A3               	movwf	(??___fladd^(0+128)+3)
 10083     0C69  3001               	movlw	1
 10084     0C6A  00A4               	movwf	(??___fladd+4)^(0+128)
 10085     0C6B                     u3905:
 10086     0C6B  0D23               	rlf	(??___fladd^(0+128)+3),w
 10087     0C6C  0CA3               	rrf	(??___fladd^(0+128)+3),f
 10088     0C6D  0CA2               	rrf	(??___fladd^(0+128)+2),f
 10089     0C6E  0CA1               	rrf	(??___fladd^(0+128)+1),f
 10090     0C6F  0CA0               	rrf	??___fladd^(0+128),f
 10091     0C70                     u3900:
 10092     0C70  0BA4               	decfsz	(??___fladd+4)^(0+128),f
 10093     0C71  2C6B               	goto	u3905
 10094     0C72  0823               	movf	(??___fladd+3)^(0+128),w
 10095     0C73  1283               	bcf	3,5	;RP0=0, select bank0
 10096     0C74  1303               	bcf	3,6	;RP1=0, select bank0
 10097     0C75  00E5               	movwf	___fladd@b+3
 10098     0C76  1683               	bsf	3,5	;RP0=1, select bank1
 10099     0C77  1303               	bcf	3,6	;RP1=0, select bank1
 10100     0C78  0822               	movf	(??___fladd+2)^(0+128),w
 10101     0C79  1283               	bcf	3,5	;RP0=0, select bank0
 10102     0C7A  1303               	bcf	3,6	;RP1=0, select bank0
 10103     0C7B  00E4               	movwf	___fladd@b+2
 10104     0C7C  1683               	bsf	3,5	;RP0=1, select bank1
 10105     0C7D  1303               	bcf	3,6	;RP1=0, select bank1
 10106     0C7E  0821               	movf	(??___fladd+1)^(0+128),w
 10107     0C7F  1283               	bcf	3,5	;RP0=0, select bank0
 10108     0C80  1303               	bcf	3,6	;RP1=0, select bank0
 10109     0C81  00E3               	movwf	___fladd@b+1
 10110     0C82  1683               	bsf	3,5	;RP0=1, select bank1
 10111     0C83  1303               	bcf	3,6	;RP1=0, select bank1
 10112     0C84  0820               	movf	??___fladd^(0+128),w
 10113     0C85  1283               	bcf	3,5	;RP0=0, select bank0
 10114     0C86  1303               	bcf	3,6	;RP1=0, select bank0
 10115     0C87  00E2               	movwf	___fladd@b
 10116     0C88  0A6C               	incf	___fladd@bexp,w
 10117     0C89  1903               	btfsc	3,2
 10118     0C8A  2C8C               	goto	u3911
 10119     0C8B  2C8D               	goto	u3910
 10120     0C8C                     u3911:
 10121     0C8C  2C8F               	goto	l623
 10122     0C8D                     u3910:
 10123     0C8D                     l2973:
 10124     0C8D  3001               	movlw	1
 10125     0C8E  07EC               	addwf	___fladd@bexp,f
 10126     0C8F                     l623:
 10127     0C8F  0A6C               	incf	___fladd@bexp,w
 10128     0C90  1903               	btfsc	3,2
 10129     0C91  2C93               	goto	u3921
 10130     0C92  2C94               	goto	u3920
 10131     0C93                     u3921:
 10132     0C93  2C99               	goto	l2977
 10133     0C94                     u3920:
 10134     0C94                     l2975:
 10135     0C94  086C               	movf	___fladd@bexp,w
 10136     0C95  1D03               	btfss	3,2
 10137     0C96  2C98               	goto	u3931
 10138     0C97  2C99               	goto	u3930
 10139     0C98                     u3931:
 10140     0C98  2CA7               	goto	l2983
 10141     0C99                     u3930:
 10142     0C99                     l2977:
 10143     0C99  3000               	movlw	0
 10144     0C9A  00E5               	movwf	___fladd@b+3
 10145     0C9B  3000               	movlw	0
 10146     0C9C  00E4               	movwf	___fladd@b+2
 10147     0C9D  3000               	movlw	0
 10148     0C9E  00E3               	movwf	___fladd@b+1
 10149     0C9F  3000               	movlw	0
 10150     0CA0  00E2               	movwf	___fladd@b
 10151     0CA1                     l2979:
 10152     0CA1  086C               	movf	___fladd@bexp,w
 10153     0CA2  1D03               	btfss	3,2
 10154     0CA3  2CA5               	goto	u3941
 10155     0CA4  2CA6               	goto	u3940
 10156     0CA5                     u3941:
 10157     0CA5  2CA7               	goto	l2983
 10158     0CA6                     u3940:
 10159     0CA6                     l2981:
 10160     0CA6  01EA               	clrf	___fladd@signs
 10161     0CA7                     l2983:
 10162     0CA7  1C6C               	btfss	___fladd@bexp,0
 10163     0CA8  2CAA               	goto	u3951
 10164     0CA9  2CAB               	goto	u3950
 10165     0CAA                     u3951:
 10166     0CAA  2CAD               	goto	l2987
 10167     0CAB                     u3950:
 10168     0CAB                     l2985:
 10169     0CAB  17E4               	bsf	___fladd@b+2,7
 10170     0CAC  2CAF               	goto	l631
 10171     0CAD                     l2987:
 10172     0CAD  307F               	movlw	127
 10173     0CAE  05E4               	andwf	___fladd@b+2,f
 10174     0CAF                     l631:
 10175     0CAF  086C               	movf	___fladd@bexp,w
 10176     0CB0  1683               	bsf	3,5	;RP0=1, select bank1
 10177     0CB1  1303               	bcf	3,6	;RP1=0, select bank1
 10178     0CB2  00A0               	movwf	??___fladd^(0+128)
 10179     0CB3  1003               	clrc
 10180     0CB4  0C20               	rrf	??___fladd^(0+128),w
 10181     0CB5  1283               	bcf	3,5	;RP0=0, select bank0
 10182     0CB6  1303               	bcf	3,6	;RP1=0, select bank0
 10183     0CB7  00E5               	movwf	___fladd@b+3
 10184     0CB8                     l2989:
 10185     0CB8  1FEA               	btfss	___fladd@signs,7
 10186     0CB9  2CBB               	goto	u3961
 10187     0CBA  2CBC               	goto	u3960
 10188     0CBB                     u3961:
 10189     0CBB  2CBD               	goto	l632
 10190     0CBC                     u3960:
 10191     0CBC                     l2991:
 10192     0CBC  17E5               	bsf	___fladd@b+3,7
 10193     0CBD                     l632:
 10194     0CBD                     l602:
 10195     0CBD  0008               	return
 10196     0CBE                     __end_of___fladd:
 10197                           
 10198                           	psect	text31
 10199     1EC4                     __ptext31:	
 10200 ;; *************** function _USART_Write_Text *****************
 10201 ;; Defined at:
 10202 ;;		line 189 in file "main_teste_speed.c"
 10203 ;; Parameters:    Size  Location     Type
 10204 ;;  str             2    1[BANK0 ] PTR const unsigned char 
 10205 ;;		 -> STR_24(17), STR_23(6), STR_22(11), STR_20(4), 
 10206 ;;		 -> STR_19(11), STR_17(4), STR_16(8), STR_14(17), 
 10207 ;;		 -> STR_13(5), STR_11(3), STR_9(11), STR_7(17), 
 10208 ;;		 -> STR_6(6), STR_4(3), STR_2(11), main@str_buffer(10), 
 10209 ;; Auto vars:     Size  Location     Type
 10210 ;;		None
 10211 ;; Return value:  Size  Location     Type
 10212 ;;                  1    wreg      void 
 10213 ;; Registers used:
 10214 ;;		wreg, fsr0l, fsr0h, status,2, status,0, btemp+1, pclath, cstack
 10215 ;; Tracked objects:
 10216 ;;		On entry : 0/0
 10217 ;;		On exit  : 0/0
 10218 ;;		Unchanged: 0/0
 10219 ;; Data sizes:     COMMON   BANK0   BANK1   BANK3   BANK2
 10220 ;;      Params:         0       2       0       0       0
 10221 ;;      Locals:         0       0       0       0       0
 10222 ;;      Temps:          0       0       0       0       0
 10223 ;;      Totals:         0       2       0       0       0
 10224 ;;Total ram usage:        2 bytes
 10225 ;; Hardware stack levels used: 1
 10226 ;; Hardware stack levels required when called: 2
 10227 ;; This function calls:
 10228 ;;		_USART_Write_Char
 10229 ;; This function is called by:
 10230 ;;		_main
 10231 ;; This function uses a non-reentrant model
 10232 ;;
 10233                           
 10234     1EC4                     _USART_Write_Text:	
 10235                           ;psect for function _USART_Write_Text
 10236                           
 10237     1EC4                     l3379:	
 10238                           ;incstack = 0
 10239                           ; Regs used in _USART_Write_Text: [wreg-fsr0h+status,2+status,0+btemp+1+pclath+cstack]
 10240                           
 10241                           
 10242                           ;main_teste_speed.c: 190:     while (*str) {
 10243     1EC4  2EDB               	goto	l3385
 10244     1EC5                     l3381:
 10245                           
 10246                           ;main_teste_speed.c: 191:         USART_Write_Char(*str++);
 10247     1EC5  0822               	movf	USART_Write_Text@str+1,w
 10248     1EC6  00FF               	movwf	btemp+1
 10249     1EC7  0821               	movf	USART_Write_Text@str,w
 10250     1EC8  0084               	movwf	4
 10251     1EC9  160A  118A  2000  160A  158A  	fcall	stringtab
 10252     1ECE  120A  158A  2003  160A  158A  	fcall	_USART_Write_Char
 10253     1ED3                     l3383:
 10254     1ED3  3001               	movlw	1
 10255     1ED4  1283               	bcf	3,5	;RP0=0, select bank0
 10256     1ED5  1303               	bcf	3,6	;RP1=0, select bank0
 10257     1ED6  07A1               	addwf	USART_Write_Text@str,f
 10258     1ED7  1803               	skipnc
 10259     1ED8  0AA2               	incf	USART_Write_Text@str+1,f
 10260     1ED9  3000               	movlw	0
 10261     1EDA  07A2               	addwf	USART_Write_Text@str+1,f
 10262     1EDB                     l3385:
 10263                           
 10264                           ;main_teste_speed.c: 190:     while (*str) {
 10265     1EDB  1283               	bcf	3,5	;RP0=0, select bank0
 10266     1EDC  1303               	bcf	3,6	;RP1=0, select bank0
 10267     1EDD  0822               	movf	USART_Write_Text@str+1,w
 10268     1EDE  00FF               	movwf	btemp+1
 10269     1EDF  0821               	movf	USART_Write_Text@str,w
 10270     1EE0  0084               	movwf	4
 10271     1EE1  160A  118A  2000  160A  158A  	fcall	stringtab
 10272     1EE6  3A00               	xorlw	0
 10273     1EE7  1D03               	skipz
 10274     1EE8  2EEA               	goto	u4671
 10275     1EE9  2EEB               	goto	u4670
 10276     1EEA                     u4671:
 10277     1EEA  2EC5               	goto	l3381
 10278     1EEB                     u4670:
 10279     1EEB                     l202:
 10280     1EEB  0008               	return
 10281     1EEC                     __end_of_USART_Write_Text:
 10282                           
 10283                           	psect	text32
 10284     0803                     __ptext32:	
 10285 ;; *************** function _USART_Write_Char *****************
 10286 ;; Defined at:
 10287 ;;		line 184 in file "main_teste_speed.c"
 10288 ;; Parameters:    Size  Location     Type
 10289 ;;  c               1    wreg     unsigned char 
 10290 ;; Auto vars:     Size  Location     Type
 10291 ;;  c               1    0[BANK0 ] unsigned char 
 10292 ;; Return value:  Size  Location     Type
 10293 ;;                  1    wreg      void 
 10294 ;; Registers used:
 10295 ;;		wreg
 10296 ;; Tracked objects:
 10297 ;;		On entry : 0/0
 10298 ;;		On exit  : 0/0
 10299 ;;		Unchanged: 0/0
 10300 ;; Data sizes:     COMMON   BANK0   BANK1   BANK3   BANK2
 10301 ;;      Params:         0       0       0       0       0
 10302 ;;      Locals:         0       1       0       0       0
 10303 ;;      Temps:          0       0       0       0       0
 10304 ;;      Totals:         0       1       0       0       0
 10305 ;;Total ram usage:        1 bytes
 10306 ;; Hardware stack levels used: 1
 10307 ;; Hardware stack levels required when called: 1
 10308 ;; This function calls:
 10309 ;;		Nothing
 10310 ;; This function is called by:
 10311 ;;		_main
 10312 ;;		_USART_Write_Text
 10313 ;; This function uses a non-reentrant model
 10314 ;;
 10315                           
 10316     0803                     _USART_Write_Char:	
 10317                           ;psect for function _USART_Write_Char
 10318                           
 10319                           
 10320                           ;incstack = 0
 10321                           ; Regs used in _USART_Write_Char: [wreg]
 10322                           ;USART_Write_Char@c stored from wreg
 10323     0803  1283               	bcf	3,5	;RP0=0, select bank0
 10324     0804  1303               	bcf	3,6	;RP1=0, select bank0
 10325     0805  00A0               	movwf	USART_Write_Char@c
 10326     0806                     l2755:
 10327     0806                     l193:	
 10328                           ;main_teste_speed.c: 185:     while (!PIR1bits.TXIF);
 10329                           
 10330     0806  1E0C               	btfss	12,4	;volatile
 10331     0807  2809               	goto	u3401
 10332     0808  280A               	goto	u3400
 10333     0809                     u3401:
 10334     0809  2806               	goto	l193
 10335     080A                     u3400:
 10336     080A                     l2757:
 10337                           
 10338                           ;main_teste_speed.c: 186:     TXREG = c;
 10339     080A  0820               	movf	USART_Write_Char@c,w
 10340     080B  0099               	movwf	25	;volatile
 10341     080C                     l196:
 10342     080C  0008               	return
 10343     080D                     __end_of_USART_Write_Char:
 10344                           
 10345                           	psect	text33
 10346     1E09                     __ptext33:	
 10347 ;; *************** function _Timer1_Init *****************
 10348 ;; Defined at:
 10349 ;;		line 170 in file "main_teste_speed.c"
 10350 ;; Parameters:    Size  Location     Type
 10351 ;;		None
 10352 ;; Auto vars:     Size  Location     Type
 10353 ;;		None
 10354 ;; Return value:  Size  Location     Type
 10355 ;;                  1    wreg      void 
 10356 ;; Registers used:
 10357 ;;		wreg, status,2, status,0
 10358 ;; Tracked objects:
 10359 ;;		On entry : 0/0
 10360 ;;		On exit  : 0/0
 10361 ;;		Unchanged: 0/0
 10362 ;; Data sizes:     COMMON   BANK0   BANK1   BANK3   BANK2
 10363 ;;      Params:         0       0       0       0       0
 10364 ;;      Locals:         0       0       0       0       0
 10365 ;;      Temps:          0       0       0       0       0
 10366 ;;      Totals:         0       0       0       0       0
 10367 ;;Total ram usage:        0 bytes
 10368 ;; Hardware stack levels used: 1
 10369 ;; Hardware stack levels required when called: 1
 10370 ;; This function calls:
 10371 ;;		Nothing
 10372 ;; This function is called by:
 10373 ;;		_main
 10374 ;; This function uses a non-reentrant model
 10375 ;;
 10376                           
 10377     1E09                     _Timer1_Init:	
 10378                           ;psect for function _Timer1_Init
 10379                           
 10380     1E09                     l3353:	
 10381                           ;incstack = 0
 10382                           ; Regs used in _Timer1_Init: [wreg+status,2+status,0]
 10383                           
 10384                           
 10385                           ;main_teste_speed.c: 172:     T1CONbits.T1CKPS = 0b00;
 10386     1E09  30CF               	movlw	-49
 10387     1E0A  1283               	bcf	3,5	;RP0=0, select bank0
 10388     1E0B  1303               	bcf	3,6	;RP1=0, select bank0
 10389     1E0C  0590               	andwf	16,f	;volatile
 10390     1E0D                     l3355:
 10391                           
 10392                           ;main_teste_speed.c: 173:     T1CONbits.TMR1CS = 0;
 10393     1E0D  1090               	bcf	16,1	;volatile
 10394     1E0E                     l3357:
 10395                           
 10396                           ;main_teste_speed.c: 174:     T1CONbits.T1OSCEN = 0;
 10397     1E0E  1190               	bcf	16,3	;volatile
 10398     1E0F                     l3359:
 10399                           
 10400                           ;main_teste_speed.c: 177:     TMR1H = 0;
 10401     1E0F  018F               	clrf	15	;volatile
 10402     1E10                     l3361:
 10403                           
 10404                           ;main_teste_speed.c: 178:     TMR1L = 0;
 10405     1E10  018E               	clrf	14	;volatile
 10406     1E11                     l3363:
 10407                           
 10408                           ;main_teste_speed.c: 181:     T1CONbits.TMR1ON = 1;
 10409     1E11  1410               	bsf	16,0	;volatile
 10410     1E12                     l190:
 10411     1E12  0008               	return
 10412     1E13                     __end_of_Timer1_Init:
 10413                           
 10414                           	psect	text34
 10415     1E34                     __ptext34:	
 10416 ;; *************** function _ADC_Read2 *****************
 10417 ;; Defined at:
 10418 ;;		line 17 in file "ADC.c"
 10419 ;; Parameters:    Size  Location     Type
 10420 ;;		None
 10421 ;; Auto vars:     Size  Location     Type
 10422 ;;		None
 10423 ;; Return value:  Size  Location     Type
 10424 ;;                  2    0[BANK0 ] unsigned int 
 10425 ;; Registers used:
 10426 ;;		wreg
 10427 ;; Tracked objects:
 10428 ;;		On entry : 0/0
 10429 ;;		On exit  : 0/0
 10430 ;;		Unchanged: 0/0
 10431 ;; Data sizes:     COMMON   BANK0   BANK1   BANK3   BANK2
 10432 ;;      Params:         0       2       0       0       0
 10433 ;;      Locals:         0       0       0       0       0
 10434 ;;      Temps:          0       1       0       0       0
 10435 ;;      Totals:         0       3       0       0       0
 10436 ;;Total ram usage:        3 bytes
 10437 ;; Hardware stack levels used: 1
 10438 ;; Hardware stack levels required when called: 1
 10439 ;; This function calls:
 10440 ;;		Nothing
 10441 ;; This function is called by:
 10442 ;;		_main
 10443 ;; This function uses a non-reentrant model
 10444 ;;
 10445                           
 10446     1E34                     _ADC_Read2:	
 10447                           ;psect for function _ADC_Read2
 10448                           
 10449     1E34                     l3299:	
 10450                           ;incstack = 0
 10451                           ; Regs used in _ADC_Read2: [wreg]
 10452                           
 10453                           
 10454                           ;ADC.c: 18:     TRISA=0xFF;
 10455     1E34  30FF               	movlw	255
 10456     1E35  1683               	bsf	3,5	;RP0=1, select bank1
 10457     1E36  1303               	bcf	3,6	;RP1=0, select bank1
 10458     1E37  0085               	movwf	5	;volatile
 10459                           
 10460                           ;ADC.c: 19:     ADCON1=0x80;
 10461     1E38  3080               	movlw	128
 10462     1E39  009F               	movwf	31	;volatile
 10463                           
 10464                           ;ADC.c: 20:     ADCON0=0x41;
 10465     1E3A  3041               	movlw	65
 10466     1E3B  1283               	bcf	3,5	;RP0=0, select bank0
 10467     1E3C  1303               	bcf	3,6	;RP1=0, select bank0
 10468     1E3D  009F               	movwf	31	;volatile
 10469     1E3E                     l3301:
 10470                           
 10471                           ;ADC.c: 21:     _delay((unsigned long)((20)*(4000000/4000000.0)));
 10472     1E3E  3005               	movlw	5
 10473     1E3F  1283               	bcf	3,5	;RP0=0, select bank0
 10474     1E40  1303               	bcf	3,6	;RP1=0, select bank0
 10475     1E41  00A2               	movwf	??_ADC_Read2
 10476     1E42                     u5207:
 10477     1E42  0BA2               	decfsz	??_ADC_Read2,f
 10478     1E43  2E42               	goto	u5207
 10479     1E44  2E45               	nop2
 10480     1E45                     l3303:
 10481                           
 10482                           ;ADC.c: 22:     ADCON0bits.GO=1;
 10483     1E45  1283               	bcf	3,5	;RP0=0, select bank0
 10484     1E46  1303               	bcf	3,6	;RP1=0, select bank0
 10485     1E47  151F               	bsf	31,2	;volatile
 10486     1E48                     l23:	
 10487                           ;ADC.c: 23:     while (ADCON0bits.GO){}
 10488                           
 10489     1E48  191F               	btfsc	31,2	;volatile
 10490     1E49  2E4B               	goto	u4651
 10491     1E4A  2E4C               	goto	u4650
 10492     1E4B                     u4651:
 10493     1E4B  2E48               	goto	l23
 10494     1E4C                     u4650:
 10495     1E4C                     l3305:
 10496                           
 10497                           ;ADC.c: 24:     return (ADRESH<<8)+ADRESL;
 10498     1E4C  081E               	movf	30,w	;volatile
 10499     1E4D  00A1               	movwf	?_ADC_Read2+1
 10500     1E4E  1683               	bsf	3,5	;RP0=1, select bank1
 10501     1E4F  1303               	bcf	3,6	;RP1=0, select bank1
 10502     1E50  081E               	movf	30,w	;volatile
 10503     1E51  1283               	bcf	3,5	;RP0=0, select bank0
 10504     1E52  1303               	bcf	3,6	;RP1=0, select bank0
 10505     1E53  00A0               	movwf	?_ADC_Read2
 10506     1E54                     l26:
 10507     1E54  0008               	return
 10508     1E55                     __end_of_ADC_Read2:
 10509                           
 10510                           	psect	text35
 10511     1E78                     __ptext35:	
 10512 ;; *************** function _ADC_Read1 *****************
 10513 ;; Defined at:
 10514 ;;		line 4 in file "ADC.c"
 10515 ;; Parameters:    Size  Location     Type
 10516 ;;		None
 10517 ;; Auto vars:     Size  Location     Type
 10518 ;;  adc_value       2    3[BANK0 ] unsigned int 
 10519 ;; Return value:  Size  Location     Type
 10520 ;;                  2    0[BANK0 ] unsigned int 
 10521 ;; Registers used:
 10522 ;;		wreg
 10523 ;; Tracked objects:
 10524 ;;		On entry : 0/0
 10525 ;;		On exit  : 0/0
 10526 ;;		Unchanged: 0/0
 10527 ;; Data sizes:     COMMON   BANK0   BANK1   BANK3   BANK2
 10528 ;;      Params:         0       2       0       0       0
 10529 ;;      Locals:         0       2       0       0       0
 10530 ;;      Temps:          0       1       0       0       0
 10531 ;;      Totals:         0       5       0       0       0
 10532 ;;Total ram usage:        5 bytes
 10533 ;; Hardware stack levels used: 1
 10534 ;; Hardware stack levels required when called: 1
 10535 ;; This function calls:
 10536 ;;		Nothing
 10537 ;; This function is called by:
 10538 ;;		_main
 10539 ;; This function uses a non-reentrant model
 10540 ;;
 10541                           
 10542     1E78                     _ADC_Read1:	
 10543                           ;psect for function _ADC_Read1
 10544                           
 10545     1E78                     l3289:	
 10546                           ;incstack = 0
 10547                           ; Regs used in _ADC_Read1: [wreg]
 10548                           
 10549                           
 10550                           ;ADC.c: 5:     TRISA=0xFF;
 10551     1E78  30FF               	movlw	255
 10552     1E79  1683               	bsf	3,5	;RP0=1, select bank1
 10553     1E7A  1303               	bcf	3,6	;RP1=0, select bank1
 10554     1E7B  0085               	movwf	5	;volatile
 10555                           
 10556                           ;ADC.c: 8:     ADCON1=0x88;
 10557     1E7C  3088               	movlw	136
 10558     1E7D  009F               	movwf	31	;volatile
 10559                           
 10560                           ;ADC.c: 9:     ADCON0=0x61;
 10561     1E7E  3061               	movlw	97
 10562     1E7F  1283               	bcf	3,5	;RP0=0, select bank0
 10563     1E80  1303               	bcf	3,6	;RP1=0, select bank0
 10564     1E81  009F               	movwf	31	;volatile
 10565     1E82                     l3291:
 10566                           
 10567                           ;ADC.c: 10:     _delay((unsigned long)((20)*(4000000/4000000.0)));
 10568     1E82  3005               	movlw	5
 10569     1E83  1283               	bcf	3,5	;RP0=0, select bank0
 10570     1E84  1303               	bcf	3,6	;RP1=0, select bank0
 10571     1E85  00A2               	movwf	??_ADC_Read1
 10572     1E86                     u5217:
 10573     1E86  0BA2               	decfsz	??_ADC_Read1,f
 10574     1E87  2E86               	goto	u5217
 10575     1E88  2E89               	nop2
 10576     1E89                     l3293:
 10577                           
 10578                           ;ADC.c: 11:     ADCON0bits.GO=1;
 10579     1E89  1283               	bcf	3,5	;RP0=0, select bank0
 10580     1E8A  1303               	bcf	3,6	;RP1=0, select bank0
 10581     1E8B  151F               	bsf	31,2	;volatile
 10582     1E8C                     l17:	
 10583                           ;ADC.c: 12:     while (ADCON0bits.GO){}
 10584                           
 10585     1E8C  191F               	btfsc	31,2	;volatile
 10586     1E8D  2E8F               	goto	u4641
 10587     1E8E  2E90               	goto	u4640
 10588     1E8F                     u4641:
 10589     1E8F  2E8C               	goto	l17
 10590     1E90                     u4640:
 10591     1E90                     l3295:
 10592                           
 10593                           ;ADC.c: 13:     unsigned int adc_value=(ADRESH<<8)+ADRESL;
 10594     1E90  081E               	movf	30,w	;volatile
 10595     1E91  00A4               	movwf	ADC_Read1@adc_value+1
 10596     1E92  1683               	bsf	3,5	;RP0=1, select bank1
 10597     1E93  1303               	bcf	3,6	;RP1=0, select bank1
 10598     1E94  081E               	movf	30,w	;volatile
 10599     1E95  1283               	bcf	3,5	;RP0=0, select bank0
 10600     1E96  1303               	bcf	3,6	;RP1=0, select bank0
 10601     1E97  00A3               	movwf	ADC_Read1@adc_value
 10602                           
 10603                           ;ADC.c: 14:     return adc_value;
 10604     1E98  0824               	movf	ADC_Read1@adc_value+1,w
 10605     1E99  00A1               	movwf	?_ADC_Read1+1
 10606     1E9A  0823               	movf	ADC_Read1@adc_value,w
 10607     1E9B  00A0               	movwf	?_ADC_Read1
 10608     1E9C                     l20:
 10609     1E9C  0008               	return
 10610     1E9D                     __end_of_ADC_Read1:
 10611                           
 10612                           	psect	text36
 10613     110F                     __ptext36:	
 10614 ;; *************** function _ISR *****************
 10615 ;; Defined at:
 10616 ;;		line 151 in file "main_teste_speed.c"
 10617 ;; Parameters:    Size  Location     Type
 10618 ;;		None
 10619 ;; Auto vars:     Size  Location     Type
 10620 ;;  timer_value     2    6[COMMON] unsigned short 
 10621 ;; Return value:  Size  Location     Type
 10622 ;;                  1    wreg      void 
 10623 ;; Registers used:
 10624 ;;		wreg, status,2, status,0
 10625 ;; Tracked objects:
 10626 ;;		On entry : 0/0
 10627 ;;		On exit  : 0/0
 10628 ;;		Unchanged: 0/0
 10629 ;; Data sizes:     COMMON   BANK0   BANK1   BANK3   BANK2
 10630 ;;      Params:         0       0       0       0       0
 10631 ;;      Locals:         2       0       0       0       0
 10632 ;;      Temps:          6       0       0       0       0
 10633 ;;      Totals:         8       0       0       0       0
 10634 ;;Total ram usage:        8 bytes
 10635 ;; Hardware stack levels used: 1
 10636 ;; This function calls:
 10637 ;;		Nothing
 10638 ;; This function is called by:
 10639 ;;		Interrupt level 1
 10640 ;; This function uses a non-reentrant model
 10641 ;;
 10642                           
 10643     110F                     _ISR:	
 10644                           ;psect for function _ISR
 10645                           
 10646     110F                     i1l3703:
 10647                           
 10648                           ;main_teste_speed.c: 152:     if (PIR1bits.CCP1IF) {
 10649     110F  1283               	bcf	3,5	;RP0=0, select bank0
 10650     1110  1303               	bcf	3,6	;RP1=0, select bank0
 10651     1111  1D0C               	btfss	12,2	;volatile
 10652     1112  2914               	goto	u513_21
 10653     1113  2915               	goto	u513_20
 10654     1114                     u513_21:
 10655     1114  295C               	goto	i1l187
 10656     1115                     u513_20:
 10657     1115                     i1l3705:
 10658                           
 10659                           ;main_teste_speed.c: 153:         PIR1bits.CCP1IF = 0;
 10660     1115  110C               	bcf	12,2	;volatile
 10661     1116                     i1l3707:
 10662                           
 10663                           ;main_teste_speed.c: 155:         uint16_t timer_value = ((uint16_t)CCPR1H << 8) | CCPR1
      +                          L;
 10664     1116  0816               	movf	22,w	;volatile
 10665     1117  00F7               	movwf	ISR@timer_value+1
 10666     1118  0815               	movf	21,w	;volatile
 10667     1119  00F6               	movwf	ISR@timer_value
 10668     111A                     i1l3709:
 10669                           
 10670                           ;main_teste_speed.c: 157:         if (firstCapture) {
 10671     111A  1683               	bsf	3,5	;RP0=1, select bank1
 10672     111B  1303               	bcf	3,6	;RP1=0, select bank1
 10673     111C  0866               	movf	_firstCapture^(0+128),w	;volatile
 10674     111D  1903               	btfsc	3,2
 10675     111E  2920               	goto	u514_21
 10676     111F  2921               	goto	u514_20
 10677     1120                     u514_21:
 10678     1120  2927               	goto	i1l3715
 10679     1121                     u514_20:
 10680     1121                     i1l3711:
 10681                           
 10682                           ;main_teste_speed.c: 158:             t1 = timer_value;
 10683     1121  0877               	movf	ISR@timer_value+1,w
 10684     1122  00E3               	movwf	(_t1+1)^(0+128)	;volatile
 10685     1123  0876               	movf	ISR@timer_value,w
 10686     1124  00E2               	movwf	_t1^(0+128)	;volatile
 10687     1125                     i1l3713:
 10688                           
 10689                           ;main_teste_speed.c: 159:             firstCapture = 0;
 10690     1125  01E6               	clrf	_firstCapture^(0+128)	;volatile
 10691                           
 10692                           ;main_teste_speed.c: 160:         } else {
 10693     1126  295C               	goto	i1l187
 10694     1127                     i1l3715:
 10695                           
 10696                           ;main_teste_speed.c: 161:             t2 = timer_value;
 10697     1127  0877               	movf	ISR@timer_value+1,w
 10698     1128  00FB               	movwf	_t2+1	;volatile
 10699     1129  0876               	movf	ISR@timer_value,w
 10700     112A  00FA               	movwf	_t2	;volatile
 10701                           
 10702                           ;main_teste_speed.c: 162:             period = (t2 >= t1) ? (t2 - t1) : ((0xFFFF - t1) +
      +                           t2 + 1);
 10703     112B  0863               	movf	(_t1+1)^(0+128),w	;volatile
 10704     112C  027B               	subwf	_t2+1,w	;volatile
 10705     112D  1D03               	skipz
 10706     112E  2931               	goto	u515_25
 10707     112F  0862               	movf	_t1^(0+128),w	;volatile
 10708     1130  027A               	subwf	_t2,w	;volatile
 10709     1131                     u515_25:
 10710     1131  1803               	skipnc
 10711     1132  2934               	goto	u515_21
 10712     1133  2935               	goto	u515_20
 10713     1134                     u515_21:
 10714     1134  294C               	goto	i1l3719
 10715     1135                     u515_20:
 10716     1135                     i1l3717:
 10717     1135  0863               	movf	(_t1+1)^(0+128),w	;volatile
 10718     1136  00F1               	movwf	??_ISR+1
 10719     1137  0862               	movf	_t1^(0+128),w	;volatile
 10720     1138  00F0               	movwf	??_ISR
 10721     1139  09F0               	comf	??_ISR,f
 10722     113A  09F1               	comf	??_ISR+1,f
 10723     113B  087A               	movf	_t2,w	;volatile
 10724     113C  0770               	addwf	??_ISR,w
 10725     113D  00F2               	movwf	??_ISR+2
 10726     113E  087B               	movf	_t2+1,w	;volatile
 10727     113F  1803               	skipnc
 10728     1140  0A7B               	incf	_t2+1,w	;volatile
 10729     1141  0771               	addwf	??_ISR+1,w
 10730     1142  00F3               	movwf	??_ISR+3
 10731     1143  0872               	movf	??_ISR+2,w
 10732     1144  3E01               	addlw	1
 10733     1145  00E4               	movwf	_period^(0+128)	;volatile
 10734     1146  0873               	movf	??_ISR+3,w
 10735     1147  1803               	skipnc
 10736     1148  3E01               	addlw	1
 10737     1149  3E00               	addlw	0
 10738     114A  00E5               	movwf	(_period+1)^(0+128)	;volatile
 10739     114B  2954               	goto	i1l3721
 10740     114C                     i1l3719:
 10741     114C  0862               	movf	_t1^(0+128),w	;volatile
 10742     114D  027A               	subwf	_t2,w	;volatile
 10743     114E  00E4               	movwf	_period^(0+128)	;volatile
 10744     114F  0863               	movf	(_t1+1)^(0+128),w	;volatile
 10745     1150  1C03               	skipc
 10746     1151  0A63               	incf	(_t1+1)^(0+128),w	;volatile
 10747     1152  027B               	subwf	_t2+1,w	;volatile
 10748     1153  00E5               	movwf	(_period+1)^(0+128)	;volatile
 10749     1154                     i1l3721:
 10750                           
 10751                           ;main_teste_speed.c: 163:             t1 = t2;
 10752     1154  087B               	movf	_t2+1,w	;volatile
 10753     1155  00E3               	movwf	(_t1+1)^(0+128)	;volatile
 10754     1156  087A               	movf	_t2,w	;volatile
 10755     1157  00E2               	movwf	_t1^(0+128)	;volatile
 10756     1158                     i1l3723:
 10757                           
 10758                           ;main_teste_speed.c: 164:             firstCapture = 1;
 10759     1158  3001               	movlw	1
 10760     1159  00E6               	movwf	_firstCapture^(0+128)	;volatile
 10761     115A                     i1l3725:
 10762                           
 10763                           ;main_teste_speed.c: 165:             newMeasure = 1;
 10764     115A  3001               	movlw	1
 10765     115B  00FD               	movwf	_newMeasure	;volatile
 10766     115C                     i1l187:
 10767     115C  0875               	movf	??_ISR+5,w
 10768     115D  008A               	movwf	10
 10769     115E  0E74               	swapf	??_ISR+4,w
 10770     115F  0083               	movwf	3
 10771     1160  0EFE               	swapf	btemp,f
 10772     1161  0E7E               	swapf	btemp,w
 10773     1162  0009               	retfie
 10774     1163                     __end_of_ISR:
 10775     0002                     ___latbits      equ	2
 10776     007E                     btemp           set	126	;btemp
 10777     007E                     wtemp0          set	126
 10778                           
 10779                           	psect	intentry
 10780     0004                     __pintentry:	
 10781                           ;incstack = 0
 10782 ;; hardware stack exceeded
 10783                           ; Regs used in _ISR: [wreg+status,2+status,0]
 10784                           
 10785     0004                     interrupt_function:
 10786     007E                     saved_w         set	btemp
 10787     0004  00FE               	movwf	btemp
 10788     0005  0E03               	swapf	3,w
 10789     0006  00F4               	movwf	??_ISR+4
 10790     0007  080A               	movf	10,w
 10791     0008  00F5               	movwf	??_ISR+5
 10792     0009  160A  118A  290F   	ljmp	_ISR
 10793                           
 10794                           	psect	config
 10795                           
 10796                           ;Config register CONFIG @ 0x2007
 10797                           ;	Oscillator Selection bits
 10798                           ;	FOSC = HS, HS oscillator
 10799                           ;	Watchdog Timer Enable bit
 10800                           ;	WDTE = OFF, WDT disabled
 10801                           ;	Power-up Timer Enable bit
 10802                           ;	PWRTE = OFF, PWRT disabled
 10803                           ;	Brown-out Reset Enable bit
 10804                           ;	BOREN = ON, BOR enabled
 10805                           ;	Low-Voltage (Single-Supply) In-Circuit Serial Programming Enable bit
 10806                           ;	LVP = OFF, RB3 is digital I/O, HV on MCLR must be used for programming
 10807                           ;	Data EEPROM Memory Code Protection bit
 10808                           ;	CPD = OFF, Data EEPROM code protection off
 10809                           ;	Flash Program Memory Write Enable bits
 10810                           ;	WRT = OFF, Write protection off; all program memory may be written to by EECON control
 10811                           ;	In-Circuit Debugger Mode bit
 10812                           ;	DEBUG = 0x1, unprogrammed default
 10813                           ;	Flash Program Memory Code Protection bit
 10814                           ;	CP = OFF, Code protection off
 10815     2007                     	org	8199
 10816     2007  3F7A               	dw	16250

Data Sizes:
    Strings     123
    Constant    0
    Data        1
    BSS         44
    Persistent  0
    Stack       0

Auto Spaces:
    Space          Size  Autos    Used
    COMMON           14      8      14
    BANK0            80     80      80
    BANK1            80     64      71
    BANK3            96      0      32
    BANK2            96      0       0

Pointer List with Targets:

    ctoa@fp	PTR struct _IO_FILE size(2) Largest target is 11
		 -> sprintf@f(BANK1[11]), 

    dtoa@fp	PTR struct _IO_FILE size(2) Largest target is 11
		 -> sprintf@f(BANK1[11]), 

    f$.$buffer	PTR unsigned char  size(2) Largest target is 10
		 -> main@str_buffer(BANK1[10]), 

    f$.$source	PTR const unsigned char  size(1) Largest target is 0

    fputc@fp	PTR struct _IO_FILE size(2) Largest target is 11
		 -> sprintf@f(BANK1[11]), 

    fputc@fp$.$buffer	PTR unsigned char  size(2) Largest target is 10
		 -> main@str_buffer(BANK1[10]), 

    fputc@fp$.$source	PTR const unsigned char  size(1) Largest target is 0

    fputs@fp	PTR struct _IO_FILE size(2) Largest target is 11
		 -> sprintf@f(BANK1[11]), 

    fputs@s	PTR const unsigned char  size(1) Largest target is 32
		 -> dbuf(BANK3[32]), 

    pad@buf	PTR unsigned char  size(1) Largest target is 32
		 -> dbuf(BANK3[32]), 

    pad@fp	PTR struct _IO_FILE size(2) Largest target is 11
		 -> sprintf@f(BANK1[11]), 

    read_prec_or_width@ap	PTR PTR void [1] size(1) Largest target is 1
		 -> sprintf@ap(BANK1[1]), 

    read_prec_or_width@fmt	PTR PTR const unsigned char  size(1) Largest target is 1
		 -> vfprintf@cfmt(BANK0[1]), 

    S847$buffer	PTR unsigned char  size(2) Largest target is 10
		 -> main@str_buffer(BANK1[10]), 

    S847$source	PTR const unsigned char  size(1) Largest target is 0

    sprintf@ap	PTR void [1] size(1) Largest target is 2
		 -> ?_sprintf(BANK0[2]), 

    sprintf@fmt	PTR const unsigned char  size(1) Largest target is 10
		 -> STR_1(CODE[4]), STR_10(CODE[8]), STR_12(CODE[3]), STR_15(CODE[4]), 
		 -> STR_18(CODE[3]), STR_21(CODE[3]), STR_3(CODE[10]), STR_5(CODE[5]), 
		 -> STR_8(CODE[4]), 

    sprintf@s	PTR unsigned char  size(1) Largest target is 10
		 -> main@str_buffer(BANK1[10]), 

    USART_Write_Text@str	PTR const unsigned char  size(2) Largest target is 17
		 -> main@str_buffer(BANK1[10]), STR_11(CODE[3]), STR_13(CODE[5]), STR_14(CODE[17]), 
		 -> STR_16(CODE[8]), STR_17(CODE[4]), STR_19(CODE[11]), STR_2(CODE[11]), 
		 -> STR_20(CODE[4]), STR_22(CODE[11]), STR_23(CODE[6]), STR_24(CODE[17]), 
		 -> STR_4(CODE[3]), STR_6(CODE[6]), STR_7(CODE[17]), STR_9(CODE[11]), 

    utoa@fp	PTR struct _IO_FILE size(2) Largest target is 11
		 -> sprintf@f(BANK1[11]), 

    vfpfcnvrt@ap	PTR PTR void  size(1) Largest target is 1
		 -> sprintf@ap(BANK1[1]), 

    vfpfcnvrt@cp	PTR unsigned char  size(1) Largest target is 10
		 -> STR_1(CODE[4]), STR_10(CODE[8]), STR_12(CODE[3]), STR_15(CODE[4]), 
		 -> STR_18(CODE[3]), STR_21(CODE[3]), STR_3(CODE[10]), STR_5(CODE[5]), 
		 -> STR_8(CODE[4]), 

    vfpfcnvrt@fmt	PTR PTR unsigned char  size(1) Largest target is 1
		 -> vfprintf@cfmt(BANK0[1]), 

    vfpfcnvrt@fp	PTR struct _IO_FILE size(2) Largest target is 11
		 -> sprintf@f(BANK1[11]), 

    vfprintf@ap	PTR PTR void  size(1) Largest target is 1
		 -> sprintf@ap(BANK1[1]), 

    vfprintf@cfmt	PTR unsigned char  size(1) Largest target is 10
		 -> STR_1(CODE[4]), STR_10(CODE[8]), STR_12(CODE[3]), STR_15(CODE[4]), 
		 -> STR_18(CODE[3]), STR_21(CODE[3]), STR_3(CODE[10]), STR_5(CODE[5]), 
		 -> STR_8(CODE[4]), 

    vfprintf@fmt	PTR const unsigned char  size(1) Largest target is 10
		 -> STR_1(CODE[4]), STR_10(CODE[8]), STR_12(CODE[3]), STR_15(CODE[4]), 
		 -> STR_18(CODE[3]), STR_21(CODE[3]), STR_3(CODE[10]), STR_5(CODE[5]), 
		 -> STR_8(CODE[4]), 

    vfprintf@fp	PTR struct _IO_FILE size(2) Largest target is 11
		 -> sprintf@f(BANK1[11]), 


Critical Paths under _main in COMMON

    None.

Critical Paths under _ISR in COMMON

    None.

Critical Paths under _main in BANK0

    _sprintf->_vfprintf
    _vfprintf->_vfpfcnvrt
    _vfpfcnvrt->_dtoa
    _utoa->_pad
    ___lldiv->___lmul
    _read_prec_or_width->___wmul
    ___wmul->___awdiv
    _dtoa->_pad
    _pad->_fputs
    _fputs->_fputc
    _abs->___almod
    _ctoa->_fputc
    _lcd_intial_4bits->_lcd_cmd
    _lcd_cmd->_enable
    ___awdiv->___awmod
    _USART_init->___fladd
    ___fltol->___flmul
    ___flmul->___xxtofl
    ___fldiv->___flmul
    ___fladd->___fldiv
    _USART_Write_Text->_USART_Write_Char

Critical Paths under _ISR in BANK0

    None.

Critical Paths under _main in BANK1

    _main->_USART_init
    _USART_init->___fladd

Critical Paths under _ISR in BANK1

    None.

Critical Paths under _main in BANK3

    None.

Critical Paths under _ISR in BANK3

    None.

Critical Paths under _main in BANK2

    None.

Critical Paths under _ISR in BANK2

    None.

Call Graph Tables:

 ---------------------------------------------------------------------------------
 (Depth) Function   	        Calls       Base Space   Used Autos Params    Refs
 ---------------------------------------------------------------------------------
 (0) _main                                                48    48      0   15103
                                             78 BANK0      2     2      0
                                             20 BANK1     44    44      0
                          _ADC_Read1
                          _ADC_Read2
                        _Timer1_Init
                   _USART_Write_Char
                   _USART_Write_Text
                         _USART_init
                            ___aldiv
                            ___awdiv
                            ___awmod
                            ___flmul
                            ___fltol
                            ___lldiv
                             ___lmul
                             ___wmul
                           ___xxtofl
                   _lcd_intial_4bits
                            _sprintf
 ---------------------------------------------------------------------------------
 (1) _sprintf                                             23    15      8    5326
                                             61 BANK0      9     1      8
                                              0 BANK1     12    12      0
                            ___awdiv (ARG)
                            ___awmod (ARG)
                           _vfprintf
 ---------------------------------------------------------------------------------
 (2) _vfprintf                                             5     1      4    5095
                                             56 BANK0      5     1      4
                          _vfpfcnvrt
 ---------------------------------------------------------------------------------
 (3) _vfpfcnvrt                                           13     9      4    4956
                                             43 BANK0     13     9      4
                               _ctoa
                               _dtoa
                              _fputc
                 _read_prec_or_width
                               _utoa
 ---------------------------------------------------------------------------------
 (4) _utoa                                                11     5      6    1346
                                             29 BANK0     11     5      6
                            ___lldiv
                            ___llmod
                                _pad
 ---------------------------------------------------------------------------------
 (5) ___llmod                                             10     2      8     161
                                              0 BANK0     10     2      8
 ---------------------------------------------------------------------------------
 (5) ___lldiv                                             14     6      8     172
                                             13 BANK0     14     6      8
                             ___lmul (ARG)
 ---------------------------------------------------------------------------------
 (4) _read_prec_or_width                                   5     3      2     280
                                             20 BANK0      5     3      2
                             ___wmul
 ---------------------------------------------------------------------------------
 (5) ___wmul                                               6     2      4      98
                                             14 BANK0      6     2      4
                            ___awdiv (ARG)
 ---------------------------------------------------------------------------------
 (4) _dtoa                                                14     8      6    1842
                                             29 BANK0     14     8      6
                            ___aldiv
                            ___almod
                                _abs
                                _pad
 ---------------------------------------------------------------------------------
 (5) _pad                                                  8     3      5     762
                                             21 BANK0      8     3      5
                              _fputc
                              _fputs
 ---------------------------------------------------------------------------------
 (6) _fputs                                                8     5      3     339
                                             13 BANK0      8     5      3
                              _fputc
 ---------------------------------------------------------------------------------
 (5) _abs                                                  4     2      2      67
                                             11 BANK0      4     2      2
                            ___almod (ARG)
 ---------------------------------------------------------------------------------
 (5) ___almod                                             11     3      8     298
                                              0 BANK0     11     3      8
 ---------------------------------------------------------------------------------
 (5) ___aldiv                                             15     7      8     304
                                              0 BANK0     15     7      8
 ---------------------------------------------------------------------------------
 (4) _ctoa                                                 9     6      3     421
                                             13 BANK0      9     6      3
                              _fputc
 ---------------------------------------------------------------------------------
 (7) _fputc                                               13     9      4     238
                                              0 BANK0     13     9      4
                              _putch
 ---------------------------------------------------------------------------------
 (8) _putch                                                1     1      0       0
 ---------------------------------------------------------------------------------
 (1) _lcd_intial_4bits                                     2     2      0      58
                                              4 BANK0      2     2      0
                            _lcd_cmd
 ---------------------------------------------------------------------------------
 (2) _lcd_cmd                                              3     3      0      58
                                              1 BANK0      3     3      0
                             _enable
 ---------------------------------------------------------------------------------
 (3) _enable                                               1     1      0       0
                                              0 BANK0      1     1      0
 ---------------------------------------------------------------------------------
 (1) ___xxtofl                                            14    10      4     337
                                              0 BANK0     14    10      4
 ---------------------------------------------------------------------------------
 (1) ___lmul                                              13     5      8      98
                                              0 BANK0     13     5      8
 ---------------------------------------------------------------------------------
 (1) ___awmod                                              6     2      4     300
                                              0 BANK0      6     2      4
 ---------------------------------------------------------------------------------
 (1) ___awdiv                                              8     4      4     314
                                              6 BANK0      8     4      4
                            ___awmod (ARG)
 ---------------------------------------------------------------------------------
 (1) _USART_init                                          12     4      8    5022
                                              8 BANK1     12     4      8
                            ___fladd
                            ___fldiv
                            ___flmul
                            ___fltol
 ---------------------------------------------------------------------------------
 (1) ___fltol                                             10     6      4     231
                                             40 BANK0     10     6      4
                            ___flmul (ARG)
                           ___xxtofl (ARG)
 ---------------------------------------------------------------------------------
 (1) ___flmul                                             26    18      8    1610
                                             14 BANK0     26    18      8
                          __Umul8_16
                           ___xxtofl (ARG)
 ---------------------------------------------------------------------------------
 (2) __Umul8_16                                            9     7      2     139
                                              0 BANK0      9     7      2
 ---------------------------------------------------------------------------------
 (2) ___fldiv                                             26    18      8    1124
                                             40 BANK0     26    18      8
                            ___flmul (ARG)
 ---------------------------------------------------------------------------------
 (2) ___fladd                                             20    12      8    1988
                                             66 BANK0     12     4      8
                                              0 BANK1      8     8      0
                            ___fldiv (ARG)
                            ___flmul (ARG)
 ---------------------------------------------------------------------------------
 (1) _USART_Write_Text                                     2     0      2      98
                                              1 BANK0      2     0      2
                   _USART_Write_Char
 ---------------------------------------------------------------------------------
 (2) _USART_Write_Char                                     1     1      0      29
                                              0 BANK0      1     1      0
 ---------------------------------------------------------------------------------
 (1) _Timer1_Init                                          0     0      0       0
 ---------------------------------------------------------------------------------
 (1) _ADC_Read2                                            3     1      2       0
                                              0 BANK0      3     1      2
 ---------------------------------------------------------------------------------
 (1) _ADC_Read1                                            5     3      2      23
                                              0 BANK0      5     3      2
 ---------------------------------------------------------------------------------
 Estimated maximum stack depth 8
 ---------------------------------------------------------------------------------
 (Depth) Function   	        Calls       Base Space   Used Autos Params    Refs
 ---------------------------------------------------------------------------------
 (9) _ISR                                                  8     8      0      45
                                              0 COMMON     8     8      0
 ---------------------------------------------------------------------------------
 Estimated maximum stack depth 9
 ---------------------------------------------------------------------------------

 Call Graph Graphs:

 _main (ROOT)
   _ADC_Read1
   _ADC_Read2
   _Timer1_Init
   _USART_Write_Char
   _USART_Write_Text
     _USART_Write_Char
   _USART_init
     ___fladd
       ___fldiv (ARG)
         ___flmul (ARG)
           __Umul8_16
           ___xxtofl (ARG)
       ___flmul (ARG)
     ___fldiv
     ___flmul
     ___fltol
       ___flmul (ARG)
       ___xxtofl (ARG)
   ___aldiv
   ___awdiv
     ___awmod (ARG)
   ___awmod
   ___flmul
   ___fltol
   ___lldiv
     ___lmul (ARG)
   ___lmul
   ___wmul
     ___awdiv (ARG)
   ___xxtofl
   _lcd_intial_4bits
     _lcd_cmd
       _enable
   _sprintf
     ___awdiv (ARG)
     ___awmod (ARG)
     _vfprintf (ARG)
       _vfpfcnvrt
         _ctoa
           _fputc
             _putch
         _dtoa
           ___aldiv
           ___almod
           _abs
             ___almod (ARG)
           _pad
             _fputc
             _fputs
               _fputc
         _fputc
         _read_prec_or_width
           ___wmul
         _utoa
           ___lldiv
           ___llmod
           _pad

 _ISR (ROOT)

Address spaces:
Name               Size   Autos  Total    Usage
BANK3               96      0      32     33.3%
BITBANK3            96      0       0      0.0%
BANK2               96      0       0      0.0%
BITBANK2            96      0       0      0.0%
BANK1               80     64      71     88.8%
BITBANK1            80      0       0      0.0%
BANK0               80     80      80    100.0%
BITBANK0            80      0       0      0.0%
COMMON              14      8      14    100.0%
BITCOMMON           14      0       0      0.0%
DATA                 0      0     197      0.0%
STACK                0      0       0      0.0%


Microchip Technology PIC Macro Assembler V3.00 build 20241204225717 
Symbol Table                                                                                   Sat Jun 28 16:24:34 2025

              ___fldiv@aexp 0061                ___fldiv@bexp 0060                           pc 0002  
              ___fldiv@sign 0059                          l20 1E9C                          l23 1E48  
                        l17 1E8C                          l26 1E54                          l43 1F7B  
                        l52 1FB7                          l37 1E20                          l97 166D  
              ___awdiv@sign 002B                          _t1 00E2                          _t2 007A  
                        fsr 0004         ___wmul@multiplicand 0030         __Umul8_16@word_mpld 0026  
                       l202 1EEB                         l302 1FFF                         l324 1281  
                       l190 1E12                         l166 01FE                         l158 010E  
                       l193 0806                         l441 121B                         l353 1499  
                       l610 0BE8                         l602 0CBD                         l290 1EC3  
                       l363 151D                         l196 080C                         l620 0C37  
                       l614 0C14                         l454 07FA                         l366 137F  
                       l518 11B6                         l631 0CAF                         l623 0C8F  
                       l632 0CBD                         l704 1F02                         l376 13EF  
                       l288 1EAB                         l706 1F14                         l482 136A  
                       l730 16A3                         l731 1723                         l492 136A  
                       l661 071B                         l645 062D                         l742 16ED  
                       l647 07A1                         l743 16F9                         l735 16D1  
                       l751 10BB                         l584 0A1C                         l808 17FF  
                       l593 0AE2                         l489 1355                         l729 1692  
                       l833 0887                         l826 0863                         l818 1484  
                       l595 0AB1                         l667 078D                         l691 0F71  
                       l771 10D5                         l835 088D                         l589 0A51  
                       l669 0799                         l685 0FFF                         l845 08F4  
                       l790 12DE                         l774 10FD                         l839 09EB  
                       l792 12F4                         l776 110E                         l697 0FF5  
                       l787 12B6                         l795 174E                         l876 1E33  
                       l869 1E77                         l799 174C                         l888 15BD  
                       l896 1F3F                         l899 07FC                         _ISR 110F  
                       _abs 1E21                         _pad 10BC                         fsr0 0004  
                       indf 0000                ___awmod@sign 0025                ___flmul@aexp 0040  
              ___flmul@bexp 0041                ___flmul@sign 003B                ___flmul@temp 0046  
              ___flmul@prod 0042                        ?_ISR 0070                ___fltol@exp1 0051  
                      ?_abs 002B                        l3001 05E6                        l3011 05FA  
                      l3003 05E7                        l3101 0718                        l3021 060F  
                      l3005 05EC                        l3013 05FC                        l3111 0737  
                      l3031 0623                        l3023 0610                        l3015 0604  
                      l3007 05F1                        l3121 0780                        l3113 0750  
                      l3105 0720                        l3025 0615                        l3033 0625  
                      l3017 0607                        l3009 05F9                        l3201 0DEF  
                      l2401 14C8                        l3131 0797                        l3123 0784  
                      l3107 0725                        l3115 0756                        l3051 066C  
                      l3035 0635                        l3043 064C                        l3027 061A  
                      l3019 060B                        l3211 0E6B                        l3203 0E0C  
                      l2331 154B                        l2323 151E                        l2411 14F6  
                      l2403 14CC                        l3301 1E3E                        l3125 078C  
                      l3117 0763                        l3109 0733                        l3061 068B  
                      l3053 0674                        l3045 0651                        l3037 0641  
                      l3029 0622                        l3221 0F1D                        l3213 0E96  
                      l3205 0E1A                        l3141 0CC4                        l2333 157D  
                      l2325 1526                        l2501 1288                        l2413 14FF  
                      l2405 14D5                        l2341 1F2A                        l3303 1E45  
                      l3127 0791                        l3119 0771                        l3071 06BD  
                      l3063 069D                        l3055 067C                        l3039 0643  
                      l3231 0F42                        l3223 0F26                        l3215 0EA4  
                      l3207 0E37                        l3151 0CD7                        l3143 0CC8  
                      l2327 152C                        l2503 128F                        l2407 14E7  
                      l2415 1505                        l2431 138E                        l2423 136B  
                      l2343 1F32                        l2351 1EB2                        l3305 1E4C  
                      l3129 0795                        l3081 06DC                        l3073 06BE  
                      l3065 06A1                        l3057 0684                        l3049 065A  
                      l3241 0F5A                        l3233 0F4B                        l3225 0F34  
                      l3217 0ECF                        l3209 0E4E                        l3161 0CF0  
                      l3153 0CDF                        l3145 0CCC                        l3137 0CBE  
                      l3401 11B7                        l2329 1533                        l2521 12E2  
                      l2513 12B4                        l2505 1299                        l2417 150A  
                      l2409 14F5                        l2441 13BA                        l2433 1396  
                      l2425 136E                        l2337 1F15                        l2353 1EB9  
                      l2345 1E9D                        l2601 0811                        l2361 122E  
                      l3091 06F5                        l3083 06DE                        l3075 06CC  
                      l3067 06A2                        l3059 0686                        l3251 0F89  
                      l3243 0F6E                        l3227 0F3D                        l3235 0F51  
                      l3219 0EF5                        l3171 0D07                        l3163 0CF4  
                      l3155 0CE1                        l3147 0CCD                        l3139 0CC2  
                      l3411 11C9                        l3403 11BA                        l3331 1F82  
                      l2515 12B9                        l2507 129D                        l2419 1515  
                      l2451 13E7                        l2443 13C8                        l2435 1399  
                      l2427 1372                        l2339 1F1A                        l2531 173E  
                      l2523 1724                        l2355 1EBF                        l2347 1EA1  
                      l2603 0820                        l2611 084E                        l2371 125B  
                      l2363 1231                        l3085 06E7                        l3093 06FB  
                      l3069 06AB                        l3077 06CE                        l3261 0FC4  
                      l3253 0F8D                        l3237 0F55                        l3229 0F41  
                      l3173 0D09                        l3165 0CF5                        l3157 0CE9  
                      l3149 0CD2                        l3421 11DB                        l3413 11CE  
                      l3405 11BE                        l3501 16BA                        l2621 1E1D  
                      l3341 1FA5                        l3333 1F8D                        l2517 12C8  
                      l2509 12AD                        l2445 13D1                        l2437 13A4  
                      l2429 1383                        l2541 175E                        l2533 1743  
                      l2525 1728                        l2349 1EA5                        l2613 085F  
                      l2605 0824                        l2373 1269                        l2365 123C  
                      l2461 117B                        l3095 06FF                        l3087 06EB  
                      l3079 06D4                        l2631 1F0B                        l2623 1EEF  
                      l3271 0FEF                        l3263 0FD3                        l3255 0FA6  
                      l3247 0F76                        l3239 0F56                        l3191 0D76  
                      l3183 0D24                        l3175 0D11                        l3167 0CFA  
                      l3159 0CEC                        l3351 164C                        l3431 11FF  
                      l3423 11E2                        l3415 11D0                        l3407 11C3  
                      l3511 16F1                        l3503 16C8                        l3343 1FAB  
                      l3335 1F93                        l2519 12D0                        l2391 14A8  
                      l2383 1485                        l2439 13A8                        l2447 13D7  
                      l2551 17BC                        l2543 1787                        l2535 1748  
                      l2527 1733                        l2607 0832                        l2375 126A  
                      l2367 1240                        l2359 121C                        l2463 117F  
                      l2471 11AE                        l2455 1163                        l2711 099F  
                      l2703 096A                        l3361 1E10                        l3353 1E09  
                      l2801 09FA                        l3097 0700                        l3089 06EC  
                      l2633 1F10                        l2625 1EF1                        l3273 0FF0  
                      l3265 0FDD                        l3249 0F7B                        l3257 0FAC  
                      l3193 0DA0                        l3185 0D32                        l3177 0D16  
                      l3169 0CFF                        l3441 1217                        l3433 1200  
                      l3425 11E4                        l3417 11D2                        l3409 11C5  
                      l3521 171B                        l3513 16FB                        l3505 16D8  
                      l2617 1E13                        l3345 1FB1                        l3337 1F99  
                      l3329 1F7C                        l2393 14AA                        l2385 1488  
                      l2449 13DC                        l2481 10D3                        l2561 17E3  
                      l2553 17C6                        l2545 1788                        l2537 1752  
                      l2529 1738                        l2609 0849                        l2377 1273  
                      l2369 1249                        l2465 1191                        l2457 116D  
                      l2721 09BF                        l2713 09A7                        l2705 0977  
                      l2641 0879                        l3281 1E5A                        l3601 01FA  
                      l3291 1E82                        l3363 1E11                        l3355 1E0D  
                      l2811 0A11                        l2803 09FE                        l3099 0704  
                      l2627 1EF8                        l3275 0FF7                        l3267 0FDF  
                      l3259 0FB9                        l3195 0DBC                        l3187 0D3F  
                      l3179 0D1B                        l3347 15BE                        l3435 1207  
                      l3427 11E8                        l3419 11D8                        l3451 07AE  
                      l3515 1711                        l3507 16E3                        l2619 1E16  
                      l3339 1F9F                        l2395 14B2                        l2387 148C  
                      l2491 1E21                        l2483 10D8                        l2475 10BC  
                      l2563 17E9                        l2555 17CB                        l2547 178E  
                      l2539 1756                        l2379 1279                        l2467 119F  
                      l2459 1170                        l2571 13F4                        l2715 09AD  
                      l2707 098B                        l2723 09CA                        l2651 0890  
                      l2643 087D                        l3283 1E67                        l3371 109F  
                      l3611 0251                        l3603 0200                        l3293 1E89  
                      l3357 1E0E                        l3381 1EC5                        l2901 0AF4  
                      l2821 0A26                        l2813 0A12                        l2805 09FF  
                      l2629 1EFC                        l3269 0FEB                        l3197 0DD8  
                      l3189 0D5A                        l3349 15CF                        l3429 11F9  
                      l3437 120D                        l3461 07C2                        l3453 07B0  
                      l3445 07A2                        l3517 1716                        l3509 16E7  
                      l2741 1F57                        l2733 1F43                        l2397 14BA  
                      l2389 149D                        l2493 1E27                        l2485 10E7  
                      l2477 10C0                        l2565 17EF                        l2557 17D8  
                      l2549 17AD                        l2469 11A8                        l2581 1427  
                      l2573 13FC                        l2661 08B6                        l2653 089D  
                      l2645 0883                        l2637 0864                        l3285 1E75  
                      l3373 10A1                        l3365 1091                        l3701 05CE  
                      l3621 027E                        l3613 025C                        l3605 0204  
                      l3541 0054                        l3533 0030                        l3295 1E90  
                      l3359 1E0F                        l3383 1ED3                        l2911 0B20  
                      l2903 0B0B                        l2831 0A39                        l2823 0A27  
                      l2807 0A04                        l2815 0A14                        l3199 0DE1  
                      l3439 1212                        l3471 07DF                        l3463 07C9  
                      l3455 07B4                        l3447 07A5                        l3391 1FC6  
                      l3519 171A                        l2751 1F6B                        l2743 1F62  
                      l2735 1F50                        l2399 14BD                        l2495 1E28  
                      l2487 10EF                        l2479 10CD                        l2559 17DC  
                      l2591 1461                        l2583 142D                        l2575 1400  
                      l2663 08BB                        l2655 08A2                        l2647 0888  
                      l2639 0875                        l2727 09D2                        l3279 1E55  
                      l3375 10B0                        l3367 1095                        l3631 02C2  
                      l3623 0284                        l3615 0267                        l3607 0209  
                      l3551 005B                        l3543 0057                        l3535 0035  
                      l3289 1E78                        l3385 1EDB                        l2921 0B4F  
                      l2913 0B24                        l2905 0B0F                        l2841 0A57  
                      l2833 0A3E                        l2825 0A2F                        l2817 0A1E  
                      l2809 0A09                        l2761 1300                        l3473 07E6  
                      l3465 07CB                        l3457 07B9                        l3449 07A9  
                      l3393 1FDD                        l2753 1F70                        l2745 1F66  
                      l2737 1F51                        l2489 1101                        l2593 146E  
                      l2577 1408                        l2585 144C                        l2569 13F0  
                      l2665 08CA                        l2673 08E4                        l2657 08B1  
                      l3369 109D                        l3641 03AD                        l3633 02C8  
                      l3625 0295                        l3617 026D                        l3609 0220  
                      l3561 0075                        l3553 005F                        l3545 0058  
                      l3537 004C                        l3299 1E34                        l2755 0806  
                      l3379 1EC4                        l2923 0BC1                        l2931 0BDA  
                      l2915 0B25                        l2907 0B13                        l2851 0A63  
                      l2843 0A5B                        l2835 0A46                        l2827 0A33  
                      l2819 0A20                        l2771 1325                        l3467 07CF  
                      l3459 07BF                        l3475 07EC                        l3395 1FE6  
                      l3387 1FB8                        l3491 169A                        l3483 1671  
                      l2747 1F69                        l2739 1F52                        l2499 1282  
                      l2587 1454                        l2595 1472                        l2579 1426  
                      l2691 0937                        l2683 08F9                        l2675 08E8  
                      l2667 08CE                        l2659 08B5                        l3651 03E6  
                      l3643 03B8                        l3635 0308                        l3627 02AC  
                      l3619 0273                        l3571 00EC                        l3563 008C  
                      l3555 0062                        l3547 0059                        l3539 004F  
                      l2757 080A                        l2941 0C0D                        l2933 0BF0  
                      l2925 0BC3                        l2917 0B34                        l2909 0B1E  
                      l2861 0A6D                        l2853 0A65                        l2845 0A5D  
                      l2837 0A47                        l2829 0A34                        l2781 1333  
                      l2773 1327                        l2765 1309                        l3477 07F1  
                      l3469 07D9                        l3397 1FF7                        l3389 1FC2  
                      l3485 1676                        l2749 1F6A                        l2589 145C  
                      l2685 0907                        l2677 08F1                        l2669 08D8  
                      l3661 0413                        l3653 03F1                        l3645 03C3  
                      l3637 033A                        l3629 02B7                        l3581 0114  
                      l3573 00FF                        l3565 0097                        l3557 0063  
                      l3549 005A                        ?_pad 0035                        l2951 0C23  
                      l2943 0C13                        l2935 0BF5                        l2927 0BC6  
                      l2919 0B39                        l2871 0A77                        l2863 0A6F  
                      l2855 0A67                        l2847 0A5F                        l2839 0A49  
                      l2791 135A                        l2775 132B                        l2783 1343  
                      l2767 131C                        l2759 12F5                        l3479 07F6  
                      l3495 16A6                        l3487 167A                        l2599 080D  
                      l2687 0913                        l2695 094B                        l2679 08F7  
                      l3671 0458                        l3663 0419                        l3655 03FC  
                      l3647 03C9                        l3639 035D                        l3591 01A1  
                      l3583 0119                        l3575 0105                        l3567 00A2  
                      l3559 0064                        l2961 0C34                        l2945 0C18  
                      l2953 0C25                        l2929 0BCB                        l2881 0AB5  
                      l2873 0A79                        l2865 0A71                        l2857 0A69  
                      l2849 0A61                        l2793 135F                        l2769 131D  
                      l3497 16B1                        l3489 168A                        l2697 0953  
                      l2689 0920                        l3681 04B9                        l3673 047B  
                      l3665 041E                        l3657 0402                        l3649 03CF  
                      l3593 01A7                        l3585 0130                        l3577 010A  
                      l3569 00A8                        l2971 0C53                        l2947 0C1C  
                      l2939 0BFE                        l2955 0C29                        l2891 0AD6  
                      l2883 0AC0                        l2867 0A73                        l2859 0A6B  
                      l2875 0A7B                        l2795 09EC                        l3499 16B8  
                      l2699 0958                        l3691 059C                        l3683 04C4  
                      l3675 0486                        l3667 041F                        l3659 0408  
                      l3595 01AD                        l3587 018B                        l3579 0110  
                      l2981 0CA6                        l2973 0C8D                        l2965 0C3C  
                      l2957 0C2A                        l2949 0C1E                        l2885 0AC2  
                      l2893 0ADA                        l2877 0A7C                        l2869 0A75  
                      l2797 09F0                        l2789 134A                        l3693 05A7  
                      l3685 04CF                        l3677 0491                        l3669 0427  
                      l3597 01F1                        l3589 0196                        l2991 0CBC  
                      l2983 0CA7                        l2975 0C94                        l2967 0C41  
                      l2959 0C2E                        l2895 0AE6                        l2887 0AC6  
                      l2879 0A99                        l2799 09F2                        l3695 05B2  
                      l3687 051F                        l3679 04A2                        l3599 01F5  
                      l2985 0CAB                        l2977 0C99                        l2969 0C4F  
                      l2897 0AEB                        l2889 0AC7                        l2993 05D8  
                      l3697 05BD                        l3689 0579                        l2987 0CAD  
                      l2979 0CA1                        l2995 05DC                        l3699 05C3  
                      l2989 0CB8                        l2997 05DE                        l2999 05E2  
                      STR_1 1079                        STR_2 1042                        STR_3 104D  
                      STR_4 1085                        STR_5 1070                        STR_6 105F  
                      STR_7 1010                        STR_8 1079                        STR_9 1037  
               main@freqRot 00B4                        _BRGH 04C2                        _CREN 00C4  
                      u3010 11AE                        u3011 11AD                        u3100 12DE  
                      u3020 10C0                        u3101 12DD                        u3021 10BF  
                      u3005 11A0                        u3110 12E2                        u3030 10D3  
                      u3111 12E1                        u3031 10D2                        u4000 060F  
                      u3040 10FD                        u3200 17DC                        u3120 172D  
                      u4001 060E                        u3105 12DA                        u3041 10FC  
                      u3201 17DB                        u3121 172B                        u4010 0615  
                      u3050 1101                        u3210 17E3                        u3130 172E  
                      u4011 0614                        u3051 1100                        u3211 17E2  
                      u4100 06BD                        u4020 061A                        u3060 1E27  
                      u3140 1738                        u3220 1454                        u4101 06BC  
                      u4021 0619                        u3061 1E26                        u3045 10F9  
                      u3141 1737                        u3221 1453                        u4110 06D4  
                      u4030 0635                        u3310 1F10                        u3070 1288  
                      u3150 1743                        u3230 145C                        u4111 06D3  
                      u4031 0634                        u3311 1F0F                        u3071 1287  
                      u3151 1742                        u3231 145B                        u3400 080A  
                      u4200 0725                        u4120 06DC                        u4040 0651  
                      u5000 16E7                        u2600 1526                        u3080 129D  
                      u3160 17BC                        u3240 1461                        u3320 0875  
                      u3401 0809                        u4201 0724                        u4121 06DB  
                      u4105 06B9                        u4041 0650                        u3305 1F03  
                      u5001 16E6                        u2601 1525                        u3081 129C  
                      u3161 17BB                        u3241 1460                        u3321 0874  
                      u4210 0737                        u4050 068B                        u3410 1300  
                      u5010 16ED                        u2610 152C                        u3090 12B3  
                      u3170 17C6                        u3250 146E                        u3330 08A2  
                      u4211 0736                        u4051 068A                        u3411 12FF  
                      u5011 16EC                        u2611 152B                        u3091 12B2  
                      u3171 17C5                        u3251 146D                        u3331 08A1  
                      u4220 0746                        u4140 06EB                        u4300 0CFA  
                      u3500 135F                        u3420 1317                        u5020 16F1  
                      u2620 154B                        u3180 17CB                        u2700 122E  
                      u3260 1472                        u3340 08B5                        u5100 0204  
                      u4141 06EA                        u4301 0CF9                        u3501 135E  
                      u5021 16F0                        u2621 154A                        u3181 17CA  
                      u3165 17B8                        u2701 122D                        u3261 1471  
                      u3341 08B4                        u5101 0203                        u3510 09FE  
                      u4230 0763                        u4310 0CFF                        u3430 132B  
                      u5030 1706                        u2630 157D                        u3190 17D8  
                      u3270 0820                        u3350 08CA                        u5110 041E  
                      u3511 09FD                        u4231 0762                        u4135 06E0  
                      u4311 0CFE                        u3431 132A                        u2631 157C  
                      u3191 17D7                        u3271 081F                        u3255 146A  
                      u3351 08C9                        u5111 041D                        u3600 0A99  
                      u3520 0A04                        u4240 0780                        u4160 06FF  
                      u4080 06A1                        u4320 0D16                        u3440 1332  
                      u5040 1716                        u2640 15A0                        u3280 085F  
                      u2720 1240                        u3360 0913                        u5120 0427  
                      u3601 0A98                        u3521 0A03                        u4241 077F  
                      u4225 0741                        u4161 06FE                        u4081 06A0  
                      u4065 068D                        u4401 0E29                        u4321 0D15  
                      u3441 1331                        u3425 1312                        u5041 1715  
                      u3281 085E                        u2721 123F                        u3361 0912  
                      u5121 0426                        u3610 0AA4                        u3530 0A09  
                      u4250 0795                        u4170 0704                        u3290 1EFC  
                      u4402 0E30                        u4330 0D1B                        u5050 171A  
                      u2810 14CC                        u2650 1F3F                        u3370 091F  
                      u3611 0AA2                        u3531 0A08                        u4251 0794  
                      u4235 075F                        u4171 0703                        u4155 06EE  
                      u4075 0696                        u3291 1EFB                        u4403 0E37  
                      u4331 0D1A                        u5051 1719                        u5035 1701  
                      u2635 1579                        u2811 14CB                        u2651 1F3E  
                      u3195 17D4                        u2715 1233                        u3371 091E  
                      u3700 0B0F                        u3620 0AA5                        u3540 0A26  
                      u4180 0718                        u4260 0CCC                        u3460 1342  
                      u2660 1EA5                        u2740 125B                        u3380 0976  
                      u3701 0B0E                        u3605 0A95                        u3541 0A25  
                      u4245 077C                        u4181 0717                        u4421 0E5D  
                      u4341 0D68                        u4261 0CCB                        u3461 1341  
                      u2805 14BF                        u2661 1EA4                        u2741 125A  
                      u3381 0975                        u3710 0B13                        u3630 0AB5  
                      u3550 0A33                        u4190 071F                        u4510 0F41  
                      u4422 0E64                        u4342 0D6F                        u4270 0CD2  
                      u3470 1349                        u2830 14E7                        u2910 13A8  
                      u5070 0105                        u5207 1E42                        u3711 0B12  
                      u3631 0AB4                        u3551 0A32                        u4191 071E  
                      u4095 06A4                        u4511 0F40                        u4431 0E88  
                      u4423 0E6B                        u4415 0E39                        u4351 0D84  
                      u4343 0D76                        u4271 0CD1                        u3471 1348  
                      u3455 1334                        u2831 14E6                        u2911 13A7  
                      u2735 1242                        u5071 0104                        u3720 0B24  
                      u3640 0AC6                        u3560 0A39                        u4600 0FB9  
                      u4432 0E8F                        u4352 0D8B                        u4280 0CD7  
                      u2920 13BA                        u2760 1279                        u5080 0114  
                      u5217 1E86                        u3721 0B23                        u3641 0AC5  
                      u3561 0A38                        u4601 0FB8                        u4505 0F36  
                      u4441 0EB3                        u4433 0E96                        u4361 0DAE  
                      u4353 0D92                        u4281 0CD6                        u2825 14CE  
                      u2921 13B9                        u2905 139B                        u2761 1278  
                      u2745 1257                        u5081 0113                        u3810 0C13  
                      u3570 0A3E                        u4610 0FD3                        u4530 0F55  
                      u4450 0EDB                        u4442 0EBA                        u4362 0DB5  
                      u4290 0CF4                        u3490 135A                        u2850 1505  
                      u2770 148C                        u2690 1EBF                        u5090 01F5  
                      u3811 0C12                        u3571 0A3D                        u4611 0FD2  
                      u4531 0F54                        u4443 0EC1                        u4371 0DCA  
                      u4363 0DBC                        u4291 0CF3                        u3491 1359  
                      u3395 1F48                        u2851 1504                        u2835 14E3  
                      u2771 148B                        u2691 1EBE                        u2675 1EAC  
                      u2755 126B                        u5091 01F4                        u3900 0C70  
                      u3820 0C18                        u3740 0B4F                        u3660 0AE2  
                      u3580 0A57                        u4620 0FEF                        u4540 0F5A  
                      u4372 0DD1                        u2860 150A                        u2780 149D  
                      u2940 13D7                        u3821 0C17                        u3805 0C02  
                      u3741 0B4E                        u3661 0AE1                        u3581 0A56  
                      u4621 0FEE                        u4605 0FB5                        u4541 0F59  
                      u4525 0F44                        u4461 0EE7                        u4373 0DD8  
                      u3485 134C                        u2861 1509                        u2845 14F7  
                      u2781 149C                        u2941 13D6                        u2925 13B6  
                      u2685 1EB3                        u3910 0C8D                        u3830 0C23  
                      u3670 0AE6                        u3590 0A5B                        u4550 0F6E  
                      u4470 0F03                        u4462 0EEE                        u2790 14BA  
                      u2950 13DC                        u2870 1372                        u4630 1E75  
                      u3911 0C8C                        u3831 0C22                        u3751 0B7E  
                      u3743 0B4B                        u3735 0B29                        u3671 0AE5  
                      u3655 0ACB                        u3591 0A5A                        u4615 0FCF  
                      u4551 0F6D                        u4463 0EF5                        u4455 0ED6  
                      u4391 0DFE                        u5167 1F88                        u2791 14B9  
                      u2951 13DB                        u2935 13C9                        u2871 1371  
                      u4631 1E74                        u4640 1E90                        u3920 0C94  
                      u3840 0C29                        u3760 0BA0                        u3752 0B81  
                      u3680 0AEB                        u4560 0F75                        u4392 0E05  
                      u4720 1FF7                        u2880 1383                        u2960 116D  
                      u4641 1E8F                        u3921 0C93                        u3905 0C6B  
                      u3841 0C28                        u3761 0BA1                        u3753 0B88  
                      u3681 0AEA                        u4561 0F74                        u4481 0F0F  
                      u4393 0E0C                        u4385 0DDA                        u4721 1FF6  
                      u4705 1FDF                        u5177 1F5D                        u2881 1382  
                      u2961 116C                        u4650 1E4C                        u3930 0C99  
                      u3850 0C2E                        u3770 0BCB                        u3762 0BA6  
                      u3754 0B8B                        u4570 0F7B                        u4482 0F16  
                      u4810 120D                        u4730 11BE                        u2890 1396  
                      u4651 1E4B                        u3931 0C98                        u3851 0C2D  
                      u3771 0BCA                        u3763 0BA7                        u3755 0B92  
                      u3691 0AFD                        u4571 0F7A                        u4483 0F1D  
                      u4475 0EFE                        u4811 120C                        u4731 11BD  
                      u4715 1FE7                        u5187 1F76                        u2891 1395  
                      u3940 0CA6                        u3860 0C34                        u3780 0BF0  
                      u3756 0B95                        u3692 0B04                        u4580 0F8D  
                      u4820 1212                        u4740 11C9                        u4900 07EC  
                      u2980 117F                        _RCIF 0065                        u3941 0CA5  
                      u3861 0C33                        u3781 0BEF                        u3693 0B0B  
                      u4581 0F8C                        u4821 1211                        u4805 1201  
                      u4741 11C8                        u4901 07EB                        u5197 1E1A  
                      u2981 117E                        u4670 1EEB                        u3950 0CAB  
                      u3870 0C3B                        u3790 0BF5                        u4590 0F9C  
                      u4750 11D8                        u4910 07F1                        u4830 07A9  
                      u2990 1191                        u4671 1EEA                        u3951 0CAA  
                      u3871 0C3A                        u3791 0BF4                        u4495 0F1F  
                      u4751 11D7                        u4911 07F0                        u4831 07A8  
                      u2991 1190                        u2975 1172                        u3960 0CBC  
                      u3880 0C41                        u4840 07B4                        u4680 1FC6  
                      u4920 1676                        u3961 0CBB                        u3881 0C40  
                      u4841 07B3                        u4681 1FC5                        u4921 1675  
                      u3890 0C53                        u3970 05E6                        u4770 11E8  
                      u4850 07BF                        u4930 167A                        u3891 0C52  
                      u3971 05E5                        u4595 0F97                        u4771 11E7  
                      u4851 07BE                        u4691 1FCF                        u4931 1679  
                      u2995 118D                        u3980 05EC                        u4692 1FD6  
                      u4940 169A                        u3981 05EB                        u4765 11DC  
                      u4693 1FDD                        u4941 1699                        u3990 05F1  
                      u4790 11F9                        u4870 07CF                        u3991 05F0  
                      u4791 11F8                        u4871 07CE                        u4880 07D9  
                      u4960 16B7                        u4785 11E9                        u4881 07D8  
                      u4865 07C3                        u4961 16B6                        u4795 11F5  
                      u4955 16A9                        u4980 16D7                        u4885 07D5  
                      u4981 16D6                        u4895 07E0                        u4975 16C9  
                      u4995 16DC                        _SPEN 00C7                        _TXEN 04C5  
                      _TXIF 0064                        _SYNC 04C4                        abs@a 002B  
                      _dbuf 0190                        _ctoa 1282                        _main 0030  
                      _dtoa 1724                        _prec 00E0                        pad@i 003B  
                      pad@p 0038                        btemp 007E                        _utoa 13F0  
                      start 000C             ___fldiv@new_exp 005A                       ??_ISR 0070  
                     ??_abs 002D                       ??_pad 003A               ___fltol@sign1 0050  
           __end_of___aldiv 151E             __end_of___almod 13F0                       ?_ctoa 002D  
           __end_of___fladd 0CBE                       ?_main 0070                       ?_dtoa 003D  
           __end_of___fldiv 07A2             __end_of___awdiv 121C                       STR_10 104F  
                     STR_11 1085                       STR_12 1072                       STR_20 1075  
                     STR_21 1072                       STR_13 106B                       STR_14 1010  
                     STR_22 102C                       STR_15 107D                       STR_23 1065  
                     STR_24 1010                       STR_16 1057                       STR_17 1081  
                     STR_18 1088                       STR_19 1021             __end_of___awmod 07FB  
           __end_of___flmul 1000             __end_of___fltol 136B             __end_of___lldiv 1282  
                     ?_utoa 003D             ___awdiv@divisor 0026             __end_of___llmod 11B7  
                     i1l187 115C             ___awdiv@counter 002A                       _RCREG 001A  
              vfpfcnvrt@fmt 004D                       _TMR1H 000F                       _TMR1L 000E  
                     _SPBRG 0099                       _PORTB 0006                       _TRISA 0085  
                     _TRISB 0086                       _TXREG 0019         ___lmul@multiplicand 0024  
           __end_of_lcd_cmd 1F7C          ADC_Read1@adc_value 0023                       _flags 007C  
       read_prec_or_width@c 0036         read_prec_or_width@n 0037                       _fputc 151E  
                     _fputs 1F15                       pad@fp 0035                       _width 0078  
                     ctoa@c 002F                       _putch 07FC                       ctoa@l 0032  
                     ctoa@w 0034                       dtoa@d 003F                       dtoa@i 0049  
                     dtoa@p 0045                       dtoa@s 0048                       dtoa@w 0046  
         __end_of_ADC_Read1 1E9D           __end_of_ADC_Read2 1E55                       pclath 000A  
                     utoa@d 003F                       utoa@i 0046                       utoa@p 0043  
                     utoa@w 0044                       status 0003                       wtemp0 007E  
           __end_of_sprintf 10BC                 ?_USART_init 00A8             __initialization 000F  
              __end_of_ctoa 12F5                __end_of_main 05D8                __end_of_dtoa 1800  
              __end_of_utoa 1485    __end_of_USART_Write_Char 080D    __end_of_USART_Write_Text 1EEC  
                    ??_ctoa 0030                      ??_main 006E                      ??_dtoa 0043  
                    ??_utoa 0043  __end_of_read_prec_or_width 0864                      _ADCON0 001F  
                    _ADCON1 009F                      ?_fputc 0020            ___llmod@dividend 0024  
                    ?_fputs 002D                      _ADRESH 001E                      _ADRESL 009E  
                    _CCPR1H 0016                      _CCPR1L 0015            ___awdiv@dividend 0028  
                    ?_putch 0070                      i1l3711 1121                      i1l3703 110F  
                    i1l3721 1154                      i1l3713 1125                      i1l3705 1115  
                    i1l3723 1158                      i1l3715 1127                      i1l3707 1116  
                    i1l3725 115A                      i1l3717 1135                      i1l3709 111A  
                    i1l3719 114C                      u513_20 1115                      u513_21 1114  
                    u514_20 1121                      u514_21 1120                      u515_20 1135  
                    u515_21 1134                      u515_25 1131               vfpfcnvrt@done 0051  
                    _TRISB0 0430                      _TRISC2 043A                      _TRISC6 043E  
                    _TRISC7 043F            __end_of___xxtofl 1724               ??_Timer1_Init 0020  
              vfprintf@cfmt 005C                      ___lmul 1FB8                   ??___aldiv 0028  
                 ??___almod 0028                   ??___fladd 00A0                      ___wmul 1E9D  
                 ??___fldiv 0050                   ??___awdiv 002A                   ??___awmod 0024  
                 ??___flmul 0036                   ??___fltol 004C                   ??___lldiv 0035  
                 ??___llmod 0028                      _enable 1E13        read_prec_or_width@ap 0035  
          ___awdiv@quotient 002C                      _period 00E4             ___awmod@divisor 0020  
           ___awmod@counter 0024                      pad@buf 0037                      ctoa@fp 002D  
                 ??_lcd_cmd 0021                      dtoa@fp 003D                      fputc@c 0020  
                    fputs@c 0032                      fputs@i 0033                      fputs@s 002D  
                    saved_w 007E                      putch@c 0070            __end_of_vfprintf 1E78  
                    utoa@fp 003D                   ??_sprintf 0065                ___xxtofl@arg 002A  
              ___xxtofl@exp 0029                ___xxtofl@val 0020     __end_of__initialization 002C  
                ___fltol@f1 0048              __pcstackCOMMON 0070                __pidataBANK1 07FB  
             __end_of_fputc 15BE               __end_of_fputs 1F40               __end_of_putch 07FD  
       __end_of_Timer1_Init 1E13              _OPTION_REGbits 0081                     ??_fputc 0024  
                   ??_fputs 0030                     ??_putch 0020                  __pbssBANK1 00E0  
                __pbssBANK3 0190           __end_of__Umul8_16 1F15                  __pmaintext 0030  
                   ?___lmul 0020                     ?___wmul 002E                  __pintentry 0004  
                   ?_enable 0070                     _CCP1CON 0017              ___lmul@product 0029  
                 ?___xxtofl 0020                  __stringtab 1000                   _ADC_Read1 1E78  
                 _ADC_Read2 1E34                 _Timer1_Init 1E09                ??_USART_init 006E  
                   ___aldiv 1485                     ___almod 136B                     ___fladd 09EC  
                   ___fldiv 05D8                     ___awdiv 11B7                     ___awmod 07A2  
                   ___flmul 0CBE                     ___fltol 12F5                     ___lldiv 121C  
                   ___llmod 1163                  _newMeasure 007D                   ?_vfprintf 0058  
         ?_USART_Write_Char 0070                     __ptext1 1091                     __ptext2 1E55  
                   __ptext3 0864                     __ptext4 13F0                     __ptext5 1163  
                   __ptext6 121C                     __ptext7 080D                     __ptext8 1E9D  
                   __ptext9 1724                     _lcd_cmd 1F40           ?_USART_Write_Text 0021  
                 _T1CONbits 0010          ??_USART_Write_Char 0020       read_prec_or_width@fmt 0034  
                ??___xxtofl 0024          ??_USART_Write_Text 0023            ___awmod@dividend 0022  
          ___aldiv@dividend 0024                     _sprintf 1091                     clrloop0 1E02  
        __end_of_USART_init 166E        end_of_initialization 002C                     fputc@fp 0022  
                   fputs@fp 002E          _read_prec_or_width 080D                  ?_ADC_Read1 0020  
                ?_ADC_Read2 0020             ___lldiv@divisor 002D            _lcd_intial_4bits 1F7C  
           ___lldiv@counter 003A           __end_of_vfpfcnvrt 09EC            ___aldiv@quotient 002B  
       ?_read_prec_or_width 0034            vfpfcnvrt@convarg 0052                  ??_vfprintf 005C  
                 _PORTBbits 0006              ISR@timer_value 0076              main@str_buffer 00C8  
               ___fladd@grs 006D               ___xxtofl@sign 0028                  lcd_cmd@cmd 0023  
      ??_read_prec_or_width 0036                 ___fldiv@grs 005C                 ___fldiv@rem 0055  
               ___flmul@grs 003C                  main@sign_t 00C7                  main@sign_v 00C6  
                main@vitess 00B8                _firstCapture 00E6              __end_of___lmul 2000  
               vfpfcnvrt@ap 004E                 vfpfcnvrt@cp 0057                 vfpfcnvrt@fp 004B  
            __end_of___wmul 1EC4              __end_of_enable 1E21              USART_init@Fosc 00A8  
       start_initialization 000F                 __end_of_ISR 1163                 __end_of_abs 1E34  
               __end_of_pad 110F                 USART_init@x 00B0             ___llmod@divisor 0020  
           ___llmod@counter 0029                 ??_ADC_Read1 0022                 ??_ADC_Read2 0022  
               vfprintf@fmt 005A                    ??___lmul 0028                    ??___wmul 0032  
                  ??_enable 0020                   __Umul8_16 1EEC                 __pdataBANK1 00E6  
                 ___fladd@a 0066                   ___fladd@b 0062                   ___fldiv@a 0048  
                 ___fldiv@b 004C                   ___flmul@a 0032                   ___flmul@b 002E  
               __pbssCOMMON 0078                   ___latbits 0002               __pcstackBANK0 0020  
             __pcstackBANK1 00A0                ?_Timer1_Init 0070                   _main$1210 00BE  
                  ?___aldiv 0020                    ?___almod 0020                    ?___fladd 0062  
                  ?___fldiv 0048                    ?___awdiv 0026                    ?___awmod 0020  
                  ?___flmul 002E                    ?___fltol 0048                    ?___lldiv 002D  
                  ?___llmod 0020                  ?__Umul8_16 0020            ___almod@dividend 0024  
                 __pstrings 1000                    ?_lcd_cmd 0070    __end_of_lcd_intial_4bits 1FB8  
                  ?_sprintf 005D             ___aldiv@divisor 0020           interrupt_function 0004  
           ___aldiv@counter 0029              ___wmul@product 0032                   clear_ram0 1E01  
                  _PIE1bits 008C                    _PIR1bits 000C                   _vfpfcnvrt 0864  
                _ADCON0bits 001F                 __stringbase 100F           ___wmul@multiplier 002E  
                 main@abs_t 00C4                   main@abs_v 00D8              main@ADC_value1 00DA  
            main@ADC_value2 00D6                  vfpfcnvrt@c 0056           ___lmul@multiplier 0020  
                vfprintf@ap 005B                  vfprintf@fp 0058                 ??__Umul8_16 0022  
                ?_vfpfcnvrt 004B          __end_of__stringtab 1010                  sprintf@fmt 005E  
                  ___xxtofl 166E                    _main$373 00C0                    _main$378 00C2  
                  _dtoa$931 0043                    __ptext10 10BC                    __ptext11 1F15  
                  __ptext20 1E13                    __ptext12 1E21                    __ptext21 166E  
                  __ptext13 136B                    __ptext30 09EC                    __ptext22 1FB8  
                  __ptext14 1485                    __ptext31 1EC4                    __ptext23 07A2  
                  __ptext15 1282                    __ptext32 0803                    __ptext24 11B7  
                  __ptext16 151E                    __ptext33 1E09                    __ptext25 15BE  
                  __ptext17 07FC                    __ptext34 1E34                    __ptext26 12F5  
                  __ptext18 1F7C                    __ptext35 1E78                    __ptext27 0CBE  
                  __ptext19 1F40                    __ptext36 110F                    __ptext28 1EEC  
                  __ptext29 05D8             ___almod@divisor 0020             ___almod@counter 0029  
        USART_init@BaudRate 00AC                    _vfprintf 1E55                    main@freq 00D2  
                _INTCONbits 000B             main@pot_percent 00BC                    intlevel1 0000  
                 sprintf@ap 00A0            _USART_Write_Char 0803            _USART_Write_Text 1EC4  
          ___lldiv@dividend 0031                   stringcode 100A                 ??_vfpfcnvrt 004F  
       USART_Write_Text@str 0021      __Umul8_16@multiplicand 0020                    sprintf@f 00A1  
                  sprintf@s 005D            ___lldiv@quotient 0036                    stringdir 100A  
                  stringtab 1000                ___aldiv@sign 002A           ?_lcd_intial_4bits 0070  
             ___fladd@signs 006A          ??_lcd_intial_4bits 0024           USART_Write_Char@c 0020  
              ___almod@sign 002A                ___fladd@aexp 006B                ___fladd@bexp 006C  
      __Umul8_16@multiplier 0028             main@voltage_mV1 00DE             main@voltage_mV2 00DC  
         __Umul8_16@product 0024                  _USART_init 15BE  
